libfinal.so.0 libfinal0 #MINVER#
 _Z10sortByNameRKN11FFileDialog9dir_entryES2_@Base 0.4.0
 _Z12sortDirFirstRKN11FFileDialog9dir_entryES2_@Base 0.4.0
 _ZN10FHideEventC1Ei@Base 0.4.0
 _ZN10FHideEventC2Ei@Base 0.4.0
 _ZN10FHideEventD0Ev@Base 0.4.0
 _ZN10FHideEventD1Ev@Base 0.4.0
 _ZN10FHideEventD2Ev@Base 0.4.0
 _ZN10FScrollbar10setMaximumEi@Base 0.4.0
 _ZN10FScrollbar10setMinimumEi@Base 0.4.0
 _ZN10FScrollbar11drawButtonsEv@Base 0.4.0
 _ZN10FScrollbar11onMouseDownEP11FMouseEvent@Base 0.4.0
 _ZN10FScrollbar11onMouseMoveEP11FMouseEvent@Base 0.4.0
 _ZN10FScrollbar11setGeometryEiiiib@Base 0.4.0
 _ZN10FScrollbar11setPageSizeEii@Base 0.4.0
 _ZN10FScrollbar13processScrollEv@Base 0.4.0
 _ZN10FScrollbar14setOrientationEi@Base 0.4.0
 _ZN10FScrollbar19processMiddleButtonEii@Base 0.4.0
 _ZN10FScrollbar20getClickedScrollTypeEii@Base 0.4.0
 _ZN10FScrollbar21calculateSliderValuesEv@Base 0.4.0
 _ZN10FScrollbar4drawEv@Base 0.4.0
 _ZN10FScrollbar4initEv@Base 0.4.0
 _ZN10FScrollbar6redrawEv@Base 0.4.0
 _ZN10FScrollbar6resizeEv@Base 0.4.0
 _ZN10FScrollbar7drawBarEv@Base 0.4.0
 _ZN10FScrollbar7onTimerEP11FTimerEvent@Base 0.4.0
 _ZN10FScrollbar7onWheelEP11FWheelEvent@Base 0.4.0
 _ZN10FScrollbar8setRangeEii@Base 0.4.0
 _ZN10FScrollbar8setStepsEd@Base 0.4.0
 _ZN10FScrollbar8setValueEi@Base 0.4.0
 _ZN10FScrollbar9onMouseUpEP11FMouseEvent@Base 0.4.0
 _ZN10FScrollbarC1EP7FWidget@Base 0.4.0
 _ZN10FScrollbarC1EiP7FWidget@Base 0.4.0
 _ZN10FScrollbarC2EP7FWidget@Base 0.4.0
 _ZN10FScrollbarC2EiP7FWidget@Base 0.4.0
 _ZN10FScrollbarD0Ev@Base 0.4.0
 _ZN10FScrollbarD1Ev@Base 0.4.0
 _ZN10FScrollbarD2Ev@Base 0.4.0
 _ZN10FShowEventC1Ei@Base 0.4.0
 _ZN10FShowEventC2Ei@Base 0.4.0
 _ZN10FShowEventD0Ev@Base 0.4.0
 _ZN10FShowEventD1Ev@Base 0.4.0
 _ZN10FShowEventD2Ev@Base 0.4.0
 _ZN10FStatusBar10adjustSizeEv@Base 0.4.0
 _ZN10FStatusBar10setMessageERK7FString@Base 0.4.0
 _ZN10FStatusBar11drawMessageEv@Base 0.4.0
 _ZN10FStatusBar11onMouseDownEP11FMouseEvent@Base 0.4.0
 _ZN10FStatusBar11onMouseMoveEP11FMouseEvent@Base 0.4.0
 _ZN10FStatusBar15hasActivatedKeyEv@Base 0.4.0
 _ZN10FStatusBar22cb_statuskey_activatedEP7FWidgetPv@Base 0.4.0
 _ZN10FStatusBar4drawEv@Base 0.4.0
 _ZN10FStatusBar4hideEv@Base 0.4.0
 _ZN10FStatusBar4initEv@Base 0.4.0
 _ZN10FStatusBar5clearEv@Base 0.4.0
 _ZN10FStatusBar6insertEP10FStatusKey@Base 0.4.0
 _ZN10FStatusBar6removeEP10FStatusKey@Base 0.4.0
 _ZN10FStatusBar6removeEi@Base 0.4.0
 _ZN10FStatusBar8drawKeysEv@Base 0.4.0
 _ZN10FStatusBar9onMouseUpEP11FMouseEvent@Base 0.4.0
 _ZN10FStatusBarC1EP7FWidget@Base 0.4.0
 _ZN10FStatusBarC2EP7FWidget@Base 0.4.0
 _ZN10FStatusBarD0Ev@Base 0.4.0
 _ZN10FStatusBarD1Ev@Base 0.4.0
 _ZN10FStatusBarD2Ev@Base 0.4.0
 _ZN10FStatusKey13setMouseFocusEb@Base 0.4.0
 _ZN10FStatusKey15processActivateEv@Base 0.4.0
 _ZN10FStatusKey4initEP7FWidget@Base 0.4.0
 _ZN10FStatusKey7onAccelEP11FAccelEvent@Base 0.4.0
 _ZN10FStatusKey9setActiveEv@Base 0.4.0
 _ZN10FStatusKeyC1EP7FWidget@Base 0.4.0
 _ZN10FStatusKeyC1EiRK7FStringP7FWidget@Base 0.4.0
 _ZN10FStatusKeyC2EP7FWidget@Base 0.4.0
 _ZN10FStatusKeyC2EiRK7FStringP7FWidget@Base 0.4.0
 _ZN10FStatusKeyD0Ev@Base 0.4.0
 _ZN10FStatusKeyD1Ev@Base 0.4.0
 _ZN10FStatusKeyD2Ev@Base 0.4.0
 _ZN11FAccelEvent6acceptEv@Base 0.4.0
 _ZN11FAccelEvent6ignoreEv@Base 0.4.0
 _ZN11FAccelEventC1EiPv@Base 0.4.0
 _ZN11FAccelEventC2EiPv@Base 0.4.0
 _ZN11FAccelEventD0Ev@Base 0.4.0
 _ZN11FAccelEventD1Ev@Base 0.4.0
 _ZN11FAccelEventD2Ev@Base 0.4.0
 _ZN11FCloseEvent6acceptEv@Base 0.4.0
 _ZN11FCloseEvent6ignoreEv@Base 0.4.0
 _ZN11FCloseEventC1Ei@Base 0.4.0
 _ZN11FCloseEventC2Ei@Base 0.4.0
 _ZN11FCloseEventD0Ev@Base 0.4.0
 _ZN11FCloseEventD1Ev@Base 0.4.0
 _ZN11FCloseEventD2Ev@Base 0.4.0
 _ZN11FFileDialog10adjustSizeEv@Base 0.4.0
 _ZN11FFileDialog10getHomeDirEv@Base 0.4.0
 _ZN11FFileDialog10onKeyPressEP9FKeyEvent@Base 0.4.0
 _ZN11FFileDialog14cb_processOpenEP7FWidgetPv@Base 0.4.0
 _ZN11FFileDialog15fileOpenChooserEP7FWidgetRK7FStringS4_@Base 0.4.0
 _ZN11FFileDialog15fileSaveChooserEP7FWidgetRK7FStringS4_@Base 0.4.0
 _ZN11FFileDialog16cb_processCancelEP7FWidgetPv@Base 0.4.0
 _ZN11FFileDialog17cb_processClickedEP7FWidgetPv@Base 0.4.0
 _ZN11FFileDialog18cb_processActivateEP7FWidgetPv@Base 0.4.0
 _ZN11FFileDialog18setShowHiddenFilesEb@Base 0.4.0
 _ZN11FFileDialog20cb_processRowChangedEP7FWidgetPv@Base 0.4.0
 _ZN11FFileDialog20cb_processShowHiddenEP7FWidgetPv@Base 0.4.0
 _ZN11FFileDialog4initEv@Base 0.4.0
 _ZN11FFileDialog5clearEv@Base 0.4.0
 _ZN11FFileDialog7readDirEv@Base 0.4.0
 _ZN11FFileDialog7setPathERK7FString@Base 0.4.0
 _ZN11FFileDialog9changeDirERK7FString@Base 0.4.0
 _ZN11FFileDialog9numOfDirsEv@Base 0.4.0
 _ZN11FFileDialog9printPathERK7FString@Base 0.4.0
 _ZN11FFileDialog9setFilterERK7FString@Base 0.4.0
 _ZN11FFileDialogC1EP7FWidget@Base 0.4.0
 _ZN11FFileDialogC1ERK7FStringS2_NS_10DialogTypeEP7FWidget@Base 0.4.0
 _ZN11FFileDialogC1ERKS_@Base 0.4.0
 _ZN11FFileDialogC2EP7FWidget@Base 0.4.0
 _ZN11FFileDialogC2ERK7FStringS2_NS_10DialogTypeEP7FWidget@Base 0.4.0
 _ZN11FFileDialogC2ERKS_@Base 0.4.0
 _ZN11FFileDialogD0Ev@Base 0.4.0
 _ZN11FFileDialogD1Ev@Base 0.4.0
 _ZN11FFileDialogD2Ev@Base 0.4.0
 _ZN11FFileDialogaSERKS_@Base 0.4.0
 _ZN11FFocusEvent12setFocusTypeEN2fc10FocusTypesE@Base 0.4.0
 _ZN11FFocusEvent6acceptEv@Base 0.4.0
 _ZN11FFocusEvent6ignoreEv@Base 0.4.0
 _ZN11FFocusEventC1Ei@Base 0.4.0
 _ZN11FFocusEventC2Ei@Base 0.4.0
 _ZN11FFocusEventD0Ev@Base 0.4.0
 _ZN11FFocusEventD1Ev@Base 0.4.0
 _ZN11FFocusEventD2Ev@Base 0.4.0
 _ZN11FMessageBox10adjustSizeEv@Base 0.4.0
 _ZN11FMessageBox11setHeadlineERK7FString@Base 0.4.0
 _ZN11FMessageBox13adjustButtonsEv@Base 0.4.0
 _ZN11FMessageBox13resizeButtonsEv@Base 0.4.0
 _ZN11FMessageBox15cb_processClickEP7FWidgetPv@Base 0.4.0
 _ZN11FMessageBox19calculateDimensionsEv@Base 0.4.0
 _ZN11FMessageBox4drawEv@Base 0.4.0
 _ZN11FMessageBox4infoEP7FWidgetRK7FStringS4_iii@Base 0.4.0
 _ZN11FMessageBox4infoEP7FWidgetRK7FStringiiii@Base 0.4.0
 _ZN11FMessageBox4initEiii@Base 0.4.0
 _ZN11FMessageBox5errorEP7FWidgetRK7FStringiii@Base 0.4.0
 _ZN11FMessageBox7setTextERK7FString@Base 0.4.0
 _ZN11FMessageBoxC1EP7FWidget@Base 0.4.0
 _ZN11FMessageBoxC1ERK7FStringS2_iiiP7FWidget@Base 0.4.0
 _ZN11FMessageBoxC1ERKS_@Base 0.4.0
 _ZN11FMessageBoxC2EP7FWidget@Base 0.4.0
 _ZN11FMessageBoxC2ERK7FStringS2_iiiP7FWidget@Base 0.4.0
 _ZN11FMessageBoxC2ERKS_@Base 0.4.0
 _ZN11FMessageBoxD0Ev@Base 0.4.0
 _ZN11FMessageBoxD1Ev@Base 0.4.0
 _ZN11FMessageBoxD2Ev@Base 0.4.0
 _ZN11FMessageBoxaSERKS_@Base 0.4.0
 _ZN11FMouseEventC1EiRK6FPointS2_i@Base 0.4.0
 _ZN11FMouseEventC1EiRK6FPointi@Base 0.4.0
 _ZN11FMouseEventC2EiRK6FPointS2_i@Base 0.4.0
 _ZN11FMouseEventC2EiRK6FPointi@Base 0.4.0
 _ZN11FMouseEventD0Ev@Base 0.4.0
 _ZN11FMouseEventD1Ev@Base 0.4.0
 _ZN11FMouseEventD2Ev@Base 0.4.0
 _ZN11FScrollView10adjustSizeEv@Base 0.4.0
 _ZN11FScrollView10onKeyPressEP9FKeyEvent@Base 0.4.0
 _ZN11FScrollView11setGeometryEiiiib@Base 0.4.0
 _ZN11FScrollView11setPrintPosEii@Base 0.4.0
 _ZN11FScrollView12getPrintAreaEv@Base 0.4.0
 _ZN11FScrollView12setCursorPosEii@Base 0.4.0
 _ZN11FScrollView13cb_HBarChangeEP7FWidgetPv@Base 0.4.0
 _ZN11FScrollView13cb_VBarChangeEP7FWidgetPv@Base 0.4.0
 _ZN11FScrollView13setScrollSizeEii@Base 0.4.0
 _ZN11FScrollView14onChildFocusInEP11FFocusEvent@Base 0.4.0
 _ZN11FScrollView14setScrollWidthEi@Base 0.4.0
 _ZN11FScrollView15onChildFocusOutEP11FFocusEvent@Base 0.4.0
 _ZN11FScrollView15setScrollHeightEi@Base 0.4.0
 _ZN11FScrollView16setViewportPrintEb@Base 0.4.0
 _ZN11FScrollView17setViewportCursorEv@Base 0.4.0
 _ZN11FScrollView21calculateScrollbarPosEv@Base 0.4.0
 _ZN11FScrollView24setVerticalScrollBarModeEN2fc13scrollBarModeE@Base 0.4.0
 _ZN11FScrollView26setHorizontalScrollBarModeEN2fc13scrollBarModeE@Base 0.4.0
 _ZN11FScrollView30setVerticalScrollBarVisibilityEv@Base 0.4.0
 _ZN11FScrollView32setHorizontalScrollBarVisibilityEv@Base 0.4.0
 _ZN11FScrollView4drawEv@Base 0.4.0
 _ZN11FScrollView4initEP7FWidget@Base 0.4.0
 _ZN11FScrollView4setXEib@Base 0.4.0
 _ZN11FScrollView4setYEib@Base 0.4.0
 _ZN11FScrollView6setPosEiib@Base 0.4.0
 _ZN11FScrollView7onWheelEP11FWheelEvent@Base 0.4.0
 _ZN11FScrollView7setSizeEiib@Base 0.4.0
 _ZN11FScrollView8scrollByEii@Base 0.4.0
 _ZN11FScrollView8scrollToEii@Base 0.4.0
 _ZN11FScrollView8setWidthEib@Base 0.4.0
 _ZN11FScrollView9clearAreaEi@Base 0.4.0
 _ZN11FScrollView9copy2areaEv@Base 0.4.0
 _ZN11FScrollView9onFocusInEP11FFocusEvent@Base 0.4.0
 _ZN11FScrollView9scrollToXEi@Base 0.4.0
 _ZN11FScrollView9scrollToYEi@Base 0.4.0
 _ZN11FScrollView9setBorderEb@Base 0.4.0
 _ZN11FScrollView9setHeightEib@Base 0.4.0
 _ZN11FScrollViewC1EP7FWidget@Base 0.4.0
 _ZN11FScrollViewC2EP7FWidget@Base 0.4.0
 _ZN11FScrollViewD0Ev@Base 0.4.0
 _ZN11FScrollViewD1Ev@Base 0.4.0
 _ZN11FScrollViewD2Ev@Base 0.4.0
 _ZN11FTermBuffer5writeEPKc@Base 0.4.0
 _ZN11FTermBuffer5writeEPKw@Base 0.4.0
 _ZN11FTermBuffer5writeERK7FString@Base 0.4.0
 _ZN11FTermBuffer5writeERKSbIwSt11char_traitsIwESaIwEE@Base 0.4.0
 _ZN11FTermBuffer5writeERKSs@Base 0.4.0
 _ZN11FTermBuffer5writeEi@Base 0.4.0
 _ZN11FTermBuffer6writefEPKcz@Base 0.4.0
 _ZN11FTermBuffer6writefEPKwz@Base 0.4.0
 _ZN11FTermBufferC1Ev@Base 0.4.0
 _ZN11FTermBufferC2Ev@Base 0.4.0
 _ZN11FTermBufferD0Ev@Base 0.4.0
 _ZN11FTermBufferD1Ev@Base 0.4.0
 _ZN11FTermBufferD2Ev@Base 0.4.0
 _ZN11FTimerEventC1Eii@Base 0.4.0
 _ZN11FTimerEventC2Eii@Base 0.4.0
 _ZN11FTimerEventD0Ev@Base 0.4.0
 _ZN11FTimerEventD1Ev@Base 0.4.0
 _ZN11FTimerEventD2Ev@Base 0.4.0
 _ZN11FWheelEventC1EiRK6FPointS2_i@Base 0.4.0
 _ZN11FWheelEventC1EiRK6FPointi@Base 0.4.0
 _ZN11FWheelEventC2EiRK6FPointS2_i@Base 0.4.0
 _ZN11FWheelEventC2EiRK6FPointi@Base 0.4.0
 _ZN11FWheelEventD0Ev@Base 0.4.0
 _ZN11FWheelEventD1Ev@Base 0.4.0
 _ZN11FWheelEventD2Ev@Base 0.4.0
 _ZN12FApplication10enter_loopEv@Base 0.4.0
 _ZN12FApplication10loop_levelE@Base 0.4.0
 _ZN12FApplication10queueEventEPK7FObjectPK6FEvent@Base 0.4.0
 _ZN12FApplication10zero_pointE@Base 0.4.0
 _ZN12FApplication11cmd_optionsEv@Base 0.4.0
 _ZN12FApplication11event_queueE@Base 0.4.0
 _ZN12FApplication11main_widgetE@Base 0.4.0
 _ZN12FApplication12eventInQueueEv@Base 0.4.0
 _ZN12FApplication12focus_widgetE@Base 0.4.0
 _ZN12FApplication13active_windowE@Base 0.4.0
 _ZN12FApplication13parseSGRMouseEv@Base 0.4.0
 _ZN12FApplication13parseX11MouseEv@Base 0.4.0
 _ZN12FApplication13setMainWidgetEP7FWidget@Base 0.4.0
 _ZN12FApplication14clicked_widgetE@Base 0.4.0
 _ZN12FApplication14setExitMessageESs@Base 0.4.0
 _ZN12FApplication15parseUrxvtMouseEv@Base 0.4.0
 _ZN12FApplication15processGpmEventEv@Base 0.4.0
 _ZN12FApplication16move_size_widgetE@Base 0.4.0
 _ZN12FApplication16processNextEventEv@Base 0.4.0
 _ZN12FApplication16sendQueuedEventsEv@Base 0.4.0
 _ZN12FApplication16x11_button_stateE@Base 0.4.0
 _ZN12FApplication17getX11ButtonStateEi@Base 0.4.0
 _ZN12FApplication17processMouseEventEv@Base 0.4.0
 _ZN12FApplication17processTimerEventEv@Base 0.4.0
 _ZN12FApplication17removeQueuedEventEPK7FObject@Base 0.4.0
 _ZN12FApplication18processAcceleratorERPK7FWidget@Base 0.4.0
 _ZN12FApplication18processCloseWidgetEv@Base 0.4.0
 _ZN12FApplication18processResizeEventEv@Base 0.4.0
 _ZN12FApplication18showParameterUsageERKiPPc@Base 0.4.0
 _ZN12FApplication20processKeyboardEventEv@Base 0.4.0
 _ZN12FApplication23closeConfirmationDialogEP7FWidgetP11FCloseEvent@Base 0.4.0
 _ZN12FApplication26linuxModifierKeyCorrectionERKi@Base 0.4.0
 _ZN12FApplication30processDialogSwitchAcceleratorEv@Base 0.4.0
 _ZN12FApplication4execEv@Base 0.4.0
 _ZN12FApplication4exitEi@Base 0.4.0
 _ZN12FApplication4initEv@Base 0.4.0
 _ZN12FApplication4quitEv@Base 0.4.0
 _ZN12FApplication6isQuitEv@Base 0.4.0
 _ZN12FApplication8gpmEventEb@Base 0.4.0
 _ZN12FApplication8quit_nowE@Base 0.4.0
 _ZN12FApplication9exit_loopEv@Base 0.4.0
 _ZN12FApplication9open_menuE@Base 0.4.0
 _ZN12FApplication9quit_codeE@Base 0.4.0
 _ZN12FApplication9sendEventEPK7FObjectPK6FEvent@Base 0.4.0
 _ZN12FApplicationC1ERKiPPcb@Base 0.4.0
 _ZN12FApplicationC2ERKiPPcb@Base 0.4.0
 _ZN12FApplicationD0Ev@Base 0.4.0
 _ZN12FApplicationD1Ev@Base 0.4.0
 _ZN12FApplicationD2Ev@Base 0.4.0
 _ZN12FButtonGroup10setDisableEv@Base 0.4.0
 _ZN12FButtonGroup11directFocusEv@Base 0.4.0
 _ZN12FButtonGroup11onMouseDownEP11FMouseEvent@Base 0.4.0
 _ZN12FButtonGroup11unsetEnableEv@Base 0.4.0
 _ZN12FButtonGroup13getLastButtonEv@Base 0.4.0
 _ZN12FButtonGroup14getFirstButtonEv@Base 0.4.0
 _ZN12FButtonGroup15checkScrollSizeEP13FToggleButton@Base 0.4.0
 _ZN12FButtonGroup15checkScrollSizeERK5FRect@Base 0.4.0
 _ZN12FButtonGroup16cb_buttonToggledEP7FWidgetPv@Base 0.4.0
 _ZN12FButtonGroup20setHotkeyAcceleratorEv@Base 0.4.0
 _ZN12FButtonGroup4drawEv@Base 0.4.0
 _ZN12FButtonGroup4hideEv@Base 0.4.0
 _ZN12FButtonGroup4initEv@Base 0.4.0
 _ZN12FButtonGroup6insertEP13FToggleButton@Base 0.4.0
 _ZN12FButtonGroup6removeEP13FToggleButton@Base 0.4.0
 _ZN12FButtonGroup7onAccelEP11FAccelEvent@Base 0.4.0
 _ZN12FButtonGroup7setTextERK7FString@Base 0.4.0
 _ZN12FButtonGroup9drawLabelEv@Base 0.4.0
 _ZN12FButtonGroup9getHotkeyEv@Base 0.4.0
 _ZN12FButtonGroup9onFocusInEP11FFocusEvent@Base 0.4.0
 _ZN12FButtonGroup9setEnableEb@Base 0.4.0
 _ZN12FButtonGroup9setEnableEv@Base 0.4.0
 _ZN12FButtonGroupC1EP7FWidget@Base 0.4.0
 _ZN12FButtonGroupC1ERK7FStringP7FWidget@Base 0.4.0
 _ZN12FButtonGroupC2EP7FWidget@Base 0.4.0
 _ZN12FButtonGroupC2ERK7FStringP7FWidget@Base 0.4.0
 _ZN12FButtonGroupD0Ev@Base 0.4.0
 _ZN12FButtonGroupD1Ev@Base 0.4.0
 _ZN12FButtonGroupD2Ev@Base 0.4.0
 _ZN12FListBoxItem7getTextEv@Base 0.4.0
 _ZN12FListBoxItemC1ERK7FStringPv@Base 0.4.0
 _ZN12FListBoxItemC1ERKS_@Base 0.4.0
 _ZN12FListBoxItemC1Ev@Base 0.4.0
 _ZN12FListBoxItemC2ERK7FStringPv@Base 0.4.0
 _ZN12FListBoxItemC2ERKS_@Base 0.4.0
 _ZN12FListBoxItemC2Ev@Base 0.4.0
 _ZN12FListBoxItemD0Ev@Base 0.4.0
 _ZN12FListBoxItemD1Ev@Base 0.4.0
 _ZN12FListBoxItemD2Ev@Base 0.4.0
 _ZN12FListBoxItemaSERKS_@Base 0.4.0
 _ZN12FProgressbar11setGeometryEiiiib@Base 0.4.0
 _ZN12FProgressbar13setPercentageEi@Base 0.4.0
 _ZN12FProgressbar14drawPercentageEv@Base 0.4.0
 _ZN12FProgressbar4drawEv@Base 0.4.0
 _ZN12FProgressbar4hideEv@Base 0.4.0
 _ZN12FProgressbar5resetEv@Base 0.4.0
 _ZN12FProgressbar7drawBarEv@Base 0.4.0
 _ZN12FProgressbar9setShadowEb@Base 0.4.0
 _ZN12FProgressbarC1EP7FWidget@Base 0.4.0
 _ZN12FProgressbarC2EP7FWidget@Base 0.4.0
 _ZN12FProgressbarD0Ev@Base 0.4.0
 _ZN12FProgressbarD1Ev@Base 0.4.0
 _ZN12FProgressbarD2Ev@Base 0.4.0
 _ZN12FRadioButton15drawRadioButtonEv@Base 0.4.0
 _ZN12FRadioButton4drawEv@Base 0.4.0
 _ZN12FRadioButton4initEv@Base 0.4.0
 _ZN12FRadioButtonC1EP7FWidget@Base 0.4.0
 _ZN12FRadioButtonC1ERK7FStringP7FWidget@Base 0.4.0
 _ZN12FRadioButtonC2EP7FWidget@Base 0.4.0
 _ZN12FRadioButtonC2ERK7FStringP7FWidget@Base 0.4.0
 _ZN12FRadioButtonD0Ev@Base 0.4.0
 _ZN12FRadioButtonD1Ev@Base 0.4.0
 _ZN12FRadioButtonD2Ev@Base 0.4.0
 _ZN12FResizeEvent6acceptEv@Base 0.4.0
 _ZN12FResizeEvent6ignoreEv@Base 0.4.0
 _ZN12FResizeEventC1Ei@Base 0.4.0
 _ZN12FResizeEventC2Ei@Base 0.4.0
 _ZN12FResizeEventD0Ev@Base 0.4.0
 _ZN12FResizeEventD1Ev@Base 0.4.0
 _ZN12FResizeEventD2Ev@Base 0.4.0
 _ZN13FListViewItem10appendItemEPS_@Base 0.4.0
 _ZN13FListViewItem15getVisibleLinesEv@Base 0.4.0
 _ZN13FListViewItem19replaceControlCodesEv@Base 0.4.0
 _ZN13FListViewItem23resetVisibleLineCounterEv@Base 0.4.0
 _ZN13FListViewItem6expandEv@Base 0.4.0
 _ZN13FListViewItem6insertEPS_@Base 0.4.0
 _ZN13FListViewItem6insertEPS_St14_List_iteratorIP7FObjectE@Base 0.4.0
 _ZN13FListViewItem7setTextEiRK7FString@Base 0.4.0
 _ZN13FListViewItem8collapseEv@Base 0.4.0
 _ZN13FListViewItemC1ERKS_@Base 0.4.0
 _ZN13FListViewItemC1ERKSt6vectorI7FStringSaIS1_EEPvSt14_List_iteratorIP7FObjectE@Base 0.4.0
 _ZN13FListViewItemC1ESt14_List_iteratorIP7FObjectE@Base 0.4.0
 _ZN13FListViewItemC2ERKS_@Base 0.4.0
 _ZN13FListViewItemC2ERKSt6vectorI7FStringSaIS1_EEPvSt14_List_iteratorIP7FObjectE@Base 0.4.0
 _ZN13FListViewItemC2ESt14_List_iteratorIP7FObjectE@Base 0.4.0
 _ZN13FListViewItemD0Ev@Base 0.4.0
 _ZN13FListViewItemD1Ev@Base 0.4.0
 _ZN13FListViewItemD2Ev@Base 0.4.0
 _ZN13FToggleButton10onFocusOutEP11FFocusEvent@Base 0.4.0
 _ZN13FToggleButton10onKeyPressEP9FKeyEvent@Base 0.4.0
 _ZN13FToggleButton10setCheckedEb@Base 0.4.0
 _ZN13FToggleButton10setDisableEv@Base 0.4.0
 _ZN13FToggleButton10unsetFocusEv@Base 0.4.0
 _ZN13FToggleButton11onMouseDownEP11FMouseEvent@Base 0.4.0
 _ZN13FToggleButton11setGeometryEiiiib@Base 0.4.0
 _ZN13FToggleButton11unsetEnableEv@Base 0.4.0
 _ZN13FToggleButton12processClickEv@Base 0.4.0
 _ZN13FToggleButton13processToggleEv@Base 0.4.0
 _ZN13FToggleButton14setNoUnderlineEb@Base 0.4.0
 _ZN13FToggleButton20setHotkeyAcceleratorEv@Base 0.4.0
 _ZN13FToggleButton4drawEv@Base 0.4.0
 _ZN13FToggleButton4hideEv@Base 0.4.0
 _ZN13FToggleButton4initEv@Base 0.4.0
 _ZN13FToggleButton7onAccelEP11FAccelEvent@Base 0.4.0
 _ZN13FToggleButton7onWheelEP11FWheelEvent@Base 0.4.0
 _ZN13FToggleButton7setTextERK7FString@Base 0.4.0
 _ZN13FToggleButton8setFocusEb@Base 0.4.0
 _ZN13FToggleButton8setFocusEv@Base 0.4.0
 _ZN13FToggleButton8setGroupEP12FButtonGroup@Base 0.4.0
 _ZN13FToggleButton9drawLabelEv@Base 0.4.0
 _ZN13FToggleButton9getHotkeyEv@Base 0.4.0
 _ZN13FToggleButton9onFocusInEP11FFocusEvent@Base 0.4.0
 _ZN13FToggleButton9onMouseUpEP11FMouseEvent@Base 0.4.0
 _ZN13FToggleButton9setEnableEb@Base 0.4.0
 _ZN13FToggleButton9setEnableEv@Base 0.4.0
 _ZN13FToggleButtonC1EP7FWidget@Base 0.4.0
 _ZN13FToggleButtonC1ERK7FStringP7FWidget@Base 0.4.0
 _ZN13FToggleButtonC2EP7FWidget@Base 0.4.0
 _ZN13FToggleButtonC2ERK7FStringP7FWidget@Base 0.4.0
 _ZN13FToggleButtonD0Ev@Base 0.4.0
 _ZN13FToggleButtonD1Ev@Base 0.4.0
 _ZN13FToggleButtonD2Ev@Base 0.4.0
 _ZN14FCheckMenuItem13processToggleEv@Base 0.4.0
 _ZN14FCheckMenuItem14processClickedEv@Base 0.4.0
 _ZN14FCheckMenuItem4initEP7FWidget@Base 0.4.0
 _ZN14FCheckMenuItemC1EP7FWidget@Base 0.4.0
 _ZN14FCheckMenuItemC1ERK7FStringP7FWidget@Base 0.4.0
 _ZN14FCheckMenuItemC2EP7FWidget@Base 0.4.0
 _ZN14FCheckMenuItemC2ERK7FStringP7FWidget@Base 0.4.0
 _ZN14FCheckMenuItemD0Ev@Base 0.4.0
 _ZN14FCheckMenuItemD1Ev@Base 0.4.0
 _ZN14FCheckMenuItemD2Ev@Base 0.4.0
 _ZN14FRadioMenuItem13processToggleEv@Base 0.4.0
 _ZN14FRadioMenuItem14processClickedEv@Base 0.4.0
 _ZN14FRadioMenuItem4initEP7FWidget@Base 0.4.0
 _ZN14FRadioMenuItemC1EP7FWidget@Base 0.4.0
 _ZN14FRadioMenuItemC1ERK7FStringP7FWidget@Base 0.4.0
 _ZN14FRadioMenuItemC2EP7FWidget@Base 0.4.0
 _ZN14FRadioMenuItemC2ERK7FStringP7FWidget@Base 0.4.0
 _ZN14FRadioMenuItemD0Ev@Base 0.4.0
 _ZN14FRadioMenuItemD1Ev@Base 0.4.0
 _ZN14FRadioMenuItemD2Ev@Base 0.4.0
 _ZN15FDialogListMenu4initEv@Base 0.4.0
 _ZN15FDialogListMenuC1EP7FWidget@Base 0.4.0
 _ZN15FDialogListMenuC1ERK7FStringP7FWidget@Base 0.4.0
 _ZN15FDialogListMenuC2EP7FWidget@Base 0.4.0
 _ZN15FDialogListMenuC2ERK7FStringP7FWidget@Base 0.4.0
 _ZN15FDialogListMenuD0Ev@Base 0.4.0
 _ZN15FDialogListMenuD1Ev@Base 0.4.0
 _ZN15FDialogListMenuD2Ev@Base 0.4.0
 _ZN17FListViewIterator11nextElementERSt14_List_iteratorIP7FObjectE@Base 0.4.0
 _ZN17FListViewIterator11prevElementERSt14_List_iteratorIP7FObjectE@Base 0.4.0
 _ZN17FListViewIterator13parentElementEv@Base 0.4.0
 _ZN17FListViewIteratorC1ESt14_List_iteratorIP7FObjectE@Base 0.4.0
 _ZN17FListViewIteratorC1Ev@Base 0.4.0
 _ZN17FListViewIteratorC2ESt14_List_iteratorIP7FObjectE@Base 0.4.0
 _ZN17FListViewIteratorC2Ev@Base 0.4.0
 _ZN17FListViewIteratorD1Ev@Base 0.4.0
 _ZN17FListViewIteratorD2Ev@Base 0.4.0
 _ZN17FListViewIteratormIEi@Base 0.4.0
 _ZN17FListViewIteratormmEi@Base 0.4.0
 _ZN17FListViewIteratormmEv@Base 0.4.0
 _ZN17FListViewIteratorpLEi@Base 0.4.0
 _ZN17FListViewIteratorppEi@Base 0.4.0
 _ZN17FListViewIteratorppEv@Base 0.4.0
 _ZN2fc12empty_stringE@Base 0.4.0
 _ZN5FMenu10hotkeyMenuERP9FKeyEvent@Base 0.4.0
 _ZN5FMenu10onKeyPressEP9FKeyEvent@Base 0.4.0
 _ZN5FMenu10setDisableEv@Base 0.4.0
 _ZN5FMenu11adjustItemsEv@Base 0.4.0
 _ZN5FMenu11onMouseDownEP11FMouseEvent@Base 0.4.0
 _ZN5FMenu11onMouseMoveEP11FMouseEvent@Base 0.4.0
 _ZN5FMenu11openSubMenuEPS_@Base 0.4.0
 _ZN5FMenu11superMenuAtEii@Base 0.4.0
 _ZN5FMenu11unsetEnableEv@Base 0.4.0
 _ZN5FMenu12getHotkeyPosERPwS1_j@Base 0.4.0
 _ZN5FMenu12hideSubMenusEv@Base 0.4.0
 _ZN5FMenu13setMenuWidgetEb@Base 0.4.0
 _ZN5FMenu14hideSuperMenusEv@Base 0.4.0
 _ZN5FMenu14selectNextItemEv@Base 0.4.0
 _ZN5FMenu14selectPrevItemEv@Base 0.4.0
 _ZN5FMenu15keypressMenuBarERP9FKeyEvent@Base 0.4.0
 _ZN5FMenu15processActivateEv@Base 0.4.0
 _ZN5FMenu19calculateDimensionsEv@Base 0.4.0
 _ZN5FMenu19cb_menuitem_toggledEP7FWidgetPv@Base 0.4.0
 _ZN5FMenu19setStatusbarMessageERK7FString@Base 0.4.0
 _ZN5FMenu21containsMenuStructureEii@Base 0.4.0
 _ZN5FMenu4drawEv@Base 0.4.0
 _ZN5FMenu4hideEv@Base 0.4.0
 _ZN5FMenu4initEP7FWidget@Base 0.4.0
 _ZN5FMenu4showEv@Base 0.4.0
 _ZN5FMenu7adjustXEi@Base 0.4.0
 _ZN5FMenu7onAccelEP11FAccelEvent@Base 0.4.0
 _ZN5FMenu9drawItemsEv@Base 0.4.0
 _ZN5FMenu9onMouseUpEP11FMouseEvent@Base 0.4.0
 _ZN5FMenu9setEnableEb@Base 0.4.0
 _ZN5FMenu9setEnableEv@Base 0.4.0
 _ZN5FMenuC1EP7FWidget@Base 0.4.0
 _ZN5FMenuC1ERK7FStringP7FWidget@Base 0.4.0
 _ZN5FMenuC2EP7FWidget@Base 0.4.0
 _ZN5FMenuC2ERK7FStringP7FWidget@Base 0.4.0
 _ZN5FMenuD0Ev@Base 0.4.0
 _ZN5FMenuD1Ev@Base 0.4.0
 _ZN5FMenuD2Ev@Base 0.4.0
 _ZN5FRect12getClassNameEv@Base 0.4.0
 _ZN5FRect14setCoordinatesERK6FPointS2_@Base 0.4.0
 _ZN5FRect14setCoordinatesEiiii@Base 0.4.0
 _ZN5FRect4moveERK6FPoint@Base 0.4.0
 _ZN5FRect4moveEii@Base 0.4.0
 _ZN5FRect4setXEi@Base 0.4.0
 _ZN5FRect4setYEi@Base 0.4.0
 _ZN5FRect5setX1Ei@Base 0.4.0
 _ZN5FRect5setX2Ei@Base 0.4.0
 _ZN5FRect5setY1Ei@Base 0.4.0
 _ZN5FRect5setY2Ei@Base 0.4.0
 _ZN5FRect6setPosERK6FPoint@Base 0.4.0
 _ZN5FRect6setPosEii@Base 0.4.0
 _ZN5FRect7setRectERKS_@Base 0.4.0
 _ZN5FRect7setRectEiiii@Base 0.4.0
 _ZN5FRect7setSizeEii@Base 0.4.0
 _ZN5FRect8setWidthEi@Base 0.4.0
 _ZN5FRect9setHeightEi@Base 0.4.0
 _ZN5FRectC1ERK6FPointS2_@Base 0.4.0
 _ZN5FRectC2ERK6FPointS2_@Base 0.4.0
 _ZN5FRectD0Ev@Base 0.4.0
 _ZN5FRectD1Ev@Base 0.4.0
 _ZN5FRectD2Ev@Base 0.4.0
 _ZN5FRectaSERKS_@Base 0.4.0
 _ZN5FTerm10UTF8decodeEPKc@Base 0.4.0
 _ZN5FTerm10charEncodeEj@Base 0.4.0
 _ZN5FTerm10charEncodeEjN2fc8encodingE@Base 0.4.0
 _ZN5FTerm10getKeyNameEi@Base 0.4.0
 _ZN5FTerm10moveCursorEiiii@Base 0.4.0
 _ZN5FTerm10oscPostfixEv@Base 0.4.0
 _ZN5FTerm10parseSecDAERPc@Base 0.4.0
 _ZN5FTerm10putstringfEPKcz@Base 0.4.0
 _ZN5FTerm10setNewFontEv@Base 0.4.0
 _ZN5FTerm10setOldFontEv@Base 0.4.0
 _ZN5FTerm10setPaletteEsiii@Base 0.4.0
 _ZN5FTerm10setRawModeEb@Base 0.4.0
 _ZN5FTerm10setVGAFontEv@Base 0.4.0
 _ZN5FTerm10utf8_inputE@Base 0.4.0
 _ZN5FTerm10utf8_stateE@Base 0.4.0
 _ZN5FTerm10xtermMouseEb@Base 0.4.0
 _ZN5FTerm10xterm_fontE@Base 0.4.0
 _ZN5FTerm11answer_backE@Base 0.4.0
 _ZN5FTerm11force_vt100E@Base 0.4.0
 _ZN5FTerm11getBaudRateEPK7termios@Base 0.4.0
 _ZN5FTerm11getEncodingEv@Base 0.4.0
 _ZN5FTerm11kde_konsoleE@Base 0.4.0
 _ZN5FTerm11locale_nameE@Base 0.4.0
 _ZN5FTerm11openConsoleEv@Base 0.4.0
 _ZN5FTerm11resize_termE@Base 0.4.0
 _ZN5FTerm11screen_fontE@Base 0.4.0
 _ZN5FTerm11setEncodingESs@Base 0.4.0
 _ZN5FTerm11setTermSizeEii@Base 0.4.0
 _ZN5FTerm11xterm_titleE@Base 0.4.0
 _ZN5FTerm12closeConsoleEv@Base 0.4.0
 _ZN5FTerm12enableCursorEv@Base 0.4.0
 _ZN5FTerm12encoding_setE@Base 0.4.0
 _ZN5FTerm12exit_messageE@Base 0.4.0
 _ZN5FTerm12getXTermFontEv@Base 0.4.0
 _ZN5FTerm12isKeyTimeoutEP7timevall@Base 0.4.0
 _ZN5FTerm12locale_xtermE@Base 0.4.0
 _ZN5FTerm12putchar_UTF8Ei@Base 0.4.0
 _ZN5FTerm12saveColorMapEv@Base 0.4.0
 _ZN5FTerm12setKDECursorEN2fc21kdeKonsoleCursorShapeE@Base 0.4.0
 _ZN5FTerm12utf8_consoleE@Base 0.4.0
 _ZN5FTerm13ansi_terminalE@Base 0.4.0
 _ZN5FTerm13ascii_consoleE@Base 0.4.0
 _ZN5FTerm13charEncodableEj@Base 0.4.0
 _ZN5FTerm13disableCursorEv@Base 0.4.0
 _ZN5FTerm13getLineNumberEv@Base 0.4.0
 _ZN5FTerm13getScreenFontEv@Base 0.4.0
 _ZN5FTerm13getUnicodeMapEv@Base 0.4.0
 _ZN5FTerm13getXTermTitleEv@Base 0.4.0
 _ZN5FTerm13init_encodingEv@Base 0.4.0
 _ZN5FTerm13init_termcapsEv@Base 0.4.0
 _ZN5FTerm13mouse_supportE@Base 0.4.0
 _ZN5FTerm13putchar_ASCIIEi@Base 0.4.0
 _ZN5FTerm13resetColorMapEv@Base 0.4.0
 _ZN5FTerm13rxvt_terminalE@Base 0.4.0
 _ZN5FTerm13setScreenFontEPhjjjb@Base 0.4.0
 _ZN5FTerm13setUnicodeMapEP10unimapdesc@Base 0.4.0
 _ZN5FTerm13setXTermTitleERK7FString@Base 0.4.0
 _ZN5FTerm13tera_terminalE@Base 0.4.0
 _ZN5FTerm13tmux_terminalE@Base 0.4.0
 _ZN5FTerm13vt100_consoleE@Base 0.4.0
 _ZN5FTerm14clr_bol_lengthE@Base 0.4.0
 _ZN5FTerm14clr_eol_lengthE@Base 0.4.0
 _ZN5FTerm14detectTermSizeEv@Base 0.4.0
 _ZN5FTerm14gnome_terminalE@Base 0.4.0
 _ZN5FTerm14isLinuxConsoleEv@Base 0.4.0
 _ZN5FTerm14kterm_terminalE@Base 0.4.0
 _ZN5FTerm14linux_terminalE@Base 0.4.0
 _ZN5FTerm14noHardwareEchoEv@Base 0.4.0
 _ZN5FTerm14parseKeyStringEPciP7timeval@Base 0.4.0
 _ZN5FTerm14putty_terminalE@Base 0.4.0
 _ZN5FTerm14signal_handlerEi@Base 0.4.0
 _ZN5FTerm14urxvt_terminalE@Base 0.4.0
 _ZN5FTerm14vt100_alt_charE@Base 0.4.0
 _ZN5FTerm14xterm_terminalE@Base 0.4.0
 _ZN5FTerm15changeAttributeERPN9FOptiAttr9char_dataES3_@Base 0.4.0
 _ZN5FTerm15cygwin_terminalE@Base 0.4.0
 _ZN5FTerm15erase_ch_lengthE@Base 0.4.0
 _ZN5FTerm15getColumnNumberEv@Base 0.4.0
 _ZN5FTerm15init_pc_charsetEv@Base 0.4.0
 _ZN5FTerm15mintty_terminalE@Base 0.4.0
 _ZN5FTerm15mlterm_terminalE@Base 0.4.0
 _ZN5FTerm15netbsd_terminalE@Base 0.4.0
 _ZN5FTerm15screen_terminalE@Base 0.4.0
 _ZN5FTerm16cp437_to_unicodeEh@Base 0.4.0
 _ZN5FTerm16decscusr_supportE@Base 0.4.0
 _ZN5FTerm16getAnswerbackMsgEv@Base 0.4.0
 _ZN5FTerm16initLinuxConsoleEv@Base 0.4.0
 _ZN5FTerm16init_alt_charsetEv@Base 0.4.0
 _ZN5FTerm16openbsd_terminalE@Base 0.4.0
 _ZN5FTerm16resetXTermColorsEv@Base 0.4.0
 _ZN5FTerm16setXTermDefaultsEv@Base 0.4.0
 _ZN5FTerm16storeTTYsettingsEv@Base 0.4.0
 _ZN5FTerm16unprocessedInputEv@Base 0.4.0
 _ZN5FTerm17getSystemTermTypeEv@Base 0.4.0
 _ZN5FTerm17getXTermColorNameEi@Base 0.4.0
 _ZN5FTerm17gpm_mouse_enabledE@Base 0.4.0
 _ZN5FTerm17initCygwinCharMapEv@Base 0.4.0
 _ZN5FTerm17scrollTermForwardEv@Base 0.4.0
 _ZN5FTerm17scrollTermReverseEv@Base 0.4.0
 _ZN5FTerm17xtermMetaSendsESCEb@Base 0.4.0
 _ZN5FTerm18getFramebuffer_bppEv@Base 0.4.0
 _ZN5FTerm18input_data_pendingE@Base 0.4.0
 _ZN5FTerm18non_blocking_stdinE@Base 0.4.0
 _ZN5FTerm18parseAnswerbackMsgERPc@Base 0.4.0
 _ZN5FTerm18pc_charset_consoleE@Base 0.4.0
 _ZN5FTerm18printMoveDurationsEv@Base 0.4.0
 _ZN5FTerm18repeat_char_lengthE@Base 0.4.0
 _ZN5FTerm18resetXTermDefaultsEv@Base 0.4.0
 _ZN5FTerm18restoreTTYsettingsEv@Base 0.4.0
 _ZN5FTerm18screen_unicode_mapE@Base 0.4.0
 _ZN5FTerm18setXTermBackgroundERK7FString@Base 0.4.0
 _ZN5FTerm18setXTermForegroundERK7FString@Base 0.4.0
 _ZN5FTerm18stdin_status_flagsE@Base 0.4.0
 _ZN5FTerm18terminal_detectionE@Base 0.4.0
 _ZN5FTerm19cursor_optimisationE@Base 0.4.0
 _ZN5FTerm19getLinuxModifierKeyEv@Base 0.4.0
 _ZN5FTerm19initTeraTermCharMapEv@Base 0.4.0
 _ZN5FTerm19no_shadow_characterE@Base 0.4.0
 _ZN5FTerm19setBlinkAsIntensityEb@Base 0.4.0
 _ZN5FTerm19setNonBlockingInputEb@Base 0.4.0
 _ZN5FTerm19setXTermCursorColorERK7FString@Base 0.4.0
 _ZN5FTerm19setXTermCursorStyleEN2fc16xtermCursorStyleE@Base 0.4.0
 _ZN5FTerm19utf8_linux_terminalE@Base 0.4.0
 _ZN5FTerm20resetXTermBackgroundEv@Base 0.4.0
 _ZN5FTerm20resetXTermForegroundEv@Base 0.4.0
 _ZN5FTerm20use_alternate_screenE@Base 0.4.0
 _ZN5FTerm20xterm_default_colorsE@Base 0.4.0
 _ZN5FTerm21cursor_addres_lengthsE@Base 0.4.0
 _ZN5FTerm21init_256colorTerminalEv@Base 0.4.0
 _ZN5FTerm21resetXTermCursorColorEv@Base 0.4.0
 _ZN5FTerm23initLinuxConsoleCharMapEv@Base 0.4.0
 _ZN5FTerm23no_half_block_characterE@Base 0.4.0
 _ZN5FTerm23readAttributeControllerEh@Base 0.4.0
 _ZN5FTerm23setXTermMouseBackgroundERK7FString@Base 0.4.0
 _ZN5FTerm23setXTermMouseForegroundERK7FString@Base 0.4.0
 _ZN5FTerm24writeAttributeControllerEhh@Base 0.4.0
 _ZN5FTerm25resetXTermMouseBackgroundEv@Base 0.4.0
 _ZN5FTerm25resetXTermMouseForegroundEv@Base 0.4.0
 _ZN5FTerm26getLinuxConsoleCursorStyleEv@Base 0.4.0
 _ZN5FTerm26linux_console_cursor_styleE@Base 0.4.0
 _ZN5FTerm26setLinuxConsoleCursorStyleEN2fc23linuxConsoleCursorStyleEb@Base 0.4.0
 _ZN5FTerm27setXTermHighlightBackgroundERK7FString@Base 0.4.0
 _ZN5FTerm28freebsd_console_cursor_styleE@Base 0.4.0
 _ZN5FTerm29resetXTermHighlightBackgroundEv@Base 0.4.0
 _ZN5FTerm4beepEv@Base 0.4.0
 _ZN5FTerm4initEv@Base 0.4.0
 _ZN5FTerm4tcapE@Base 0.4.0
 _ZN5FTerm4termE@Base 0.4.0
 _ZN5FTerm5mouseE@Base 0.4.0
 _ZN5FTerm6fd_ttyE@Base 0.4.0
 _ZN5FTerm6finishEv@Base 0.4.0
 _ZN5FTerm6getTTYEv@Base 0.4.0
 _ZN5FTerm6sec_daE@Base 0.4.0
 _ZN5FTerm6setTTYERK7termios@Base 0.4.0
 _ZN5FTerm7NewFontE@Base 0.4.0
 _ZN5FTerm7VGAFontE@Base 0.4.0
 _ZN5FTerm7mod_keyE@Base 0.4.0
 _ZN5FTerm7setBeepEii@Base 0.4.0
 _ZN5FTerm7setUTF8Eb@Base 0.4.0
 _ZN5FTerm8EncodingE@Base 0.4.0
 _ZN5FTerm8FputcharE@Base 0.4.0
 _ZN5FTerm8baudrateE@Base 0.4.0
 _ZN5FTerm8color256E@Base 0.4.0
 _ZN5FTerm8getSecDAEv@Base 0.4.0
 _ZN5FTerm8gpmMouseEb@Base 0.4.0
 _ZN5FTerm8isNormalERPN9FOptiAttr9char_dataE@Base 0.4.0
 _ZN5FTerm8raw_modeE@Base 0.4.0
 _ZN5FTerm8stdin_noE@Base 0.4.0
 _ZN5FTerm8termtypeE@Base 0.4.0
 _ZN5FTerm9monochronE@Base 0.4.0
 _ZN5FTerm9opti_attrE@Base 0.4.0
 _ZN5FTerm9opti_moveE@Base 0.4.0
 _ZN5FTerm9oscPrefixEv@Base 0.4.0
 _ZN5FTerm9resetBeepEv@Base 0.4.0
 _ZN5FTerm9stdout_noE@Base 0.4.0
 _ZN5FTerm9term_initE@Base 0.4.0
 _ZN5FTerm9term_nameE@Base 0.4.0
 _ZN5FTermC1Eb@Base 0.4.0
 _ZN5FTermC2Eb@Base 0.4.0
 _ZN5FTermD0Ev@Base 0.4.0
 _ZN5FTermD1Ev@Base 0.4.0
 _ZN5FTermD2Ev@Base 0.4.0
 _ZN6FEventC1Ei@Base 0.4.0
 _ZN6FEventC2Ei@Base 0.4.0
 _ZN6FEventD0Ev@Base 0.4.0
 _ZN6FEventD1Ev@Base 0.4.0
 _ZN6FEventD2Ev@Base 0.4.0
 _ZN6FLabel11onMouseDownEP11FMouseEvent@Base 0.4.0
 _ZN6FLabel11setEmphasisEb@Base 0.4.0
 _ZN6FLabel12getHotkeyPosERPwS1_j@Base 0.4.0
 _ZN6FLabel12setAlignmentEN2fc14text_alignmentE@Base 0.4.0
 _ZN6FLabel14getAlignOffsetEi@Base 0.4.0
 _ZN6FLabel14setAccelWidgetEP7FWidget@Base 0.4.0
 _ZN6FLabel14setReverseModeEb@Base 0.4.0
 _ZN6FLabel20setHotkeyAcceleratorEv@Base 0.4.0
 _ZN6FLabel25cb_accel_widget_destroyedEP7FWidgetPv@Base 0.4.0
 _ZN6FLabel4drawEv@Base 0.4.0
 _ZN6FLabel4hideEv@Base 0.4.0
 _ZN6FLabel4initEv@Base 0.4.0
 _ZN6FLabel7onAccelEP11FAccelEvent@Base 0.4.0
 _ZN6FLabel7setTextERK7FString@Base 0.4.0
 _ZN6FLabel9getHotkeyEv@Base 0.4.0
 _ZN6FLabel9printLineERPwjii@Base 0.4.0
 _ZN6FLabel9setEnableEb@Base 0.4.0
 _ZN6FLabelC1EP7FWidget@Base 0.4.0
 _ZN6FLabelC1ERK7FStringP7FWidget@Base 0.4.0
 _ZN6FLabelC2EP7FWidget@Base 0.4.0
 _ZN6FLabelC2ERK7FStringP7FWidget@Base 0.4.0
 _ZN6FLabelD0Ev@Base 0.4.0
 _ZN6FLabelD1Ev@Base 0.4.0
 _ZN6FLabelD2Ev@Base 0.4.0
 _ZN6FLabelaSERK7FString@Base 0.4.0
 _ZN6FLabellsERK7FString@Base 0.4.0
 _ZN6FLabellsEd@Base 0.4.0
 _ZN6FLabellsEe@Base 0.4.0
 _ZN6FLabellsEf@Base 0.4.0
 _ZN6FLabellsEi@Base 0.4.0
 _ZN6FLabellsEj@Base 0.4.0
 _ZN6FLabellsEl@Base 0.4.0
 _ZN6FLabellsEm@Base 0.4.0
 _ZN6FLabellsEw@Base 0.4.0
 _ZN6FLabelrsER7FString@Base 0.4.0
 _ZN6FPoint12getClassNameEv@Base 0.4.0
 _ZN6FPoint4setXEi@Base 0.4.0
 _ZN6FPoint4setYEi@Base 0.4.0
 _ZN6FPoint8setPointEii@Base 0.4.0
 _ZN6FPointD0Ev@Base 0.4.0
 _ZN6FPointD1Ev@Base 0.4.0
 _ZN6FPointD2Ev@Base 0.4.0
 _ZN6FPointaSERKS_@Base 0.4.0
 _ZN6FPointmIERKS_@Base 0.4.0
 _ZN6FPointpLERKS_@Base 0.4.0
 _ZN6FVTerm10createAreaERK5FRectRK6FPointRPNS_9term_areaE@Base 0.4.0
 _ZN6FVTerm10createAreaEiiiiiiRPNS_9term_areaE@Base 0.4.0
 _ZN6FVTerm10hideCursorEb@Base 0.4.0
 _ZN6FVTerm10removeAreaERPNS_9term_areaE@Base 0.4.0
 _ZN6FVTerm10resizeAreaERK5FRectRK6FPointPNS_9term_areaE@Base 0.4.0
 _ZN6FVTerm10resizeAreaEiiiiiiPNS_9term_areaE@Base 0.4.0
 _ZN6FVTerm11active_areaE@Base 0.4.0
 _ZN6FVTerm11createVTermERK5FRect@Base 0.4.0
 _ZN6FVTerm11createVTermEii@Base 0.4.0
 _ZN6FVTerm11resizeVTermERK5FRect@Base 0.4.0
 _ZN6FVTerm11resizeVTermEii@Base 0.4.0
 _ZN6FVTerm11updateVTermEPNS_9term_areaE@Base 0.4.0
 _ZN6FVTerm11updateVTermEv@Base 0.4.0
 _ZN6FVTerm12getCharacterENS_14character_typeERK6FPointPS_@Base 0.4.0
 _ZN6FVTerm12getCharacterENS_14character_typeEiiPS_@Base 0.4.0
 _ZN6FVTerm12getPrintAreaEv@Base 0.4.0
 _ZN6FVTerm12isInsideAreaEiiPNS_9term_areaE@Base 0.4.0
 _ZN6FVTerm12restoreVTermERK5FRect@Base 0.4.0
 _ZN6FVTerm12restoreVTermEiiii@Base 0.4.0
 _ZN6FVTerm13hidden_cursorE@Base 0.4.0
 _ZN6FVTerm13output_bufferE@Base 0.4.0
 _ZN6FVTerm13setAreaCursorERK6FPointbPNS_9term_areaE@Base 0.4.0
 _ZN6FVTerm13setAreaCursorEiibPNS_9term_areaE@Base 0.4.0
 _ZN6FVTerm14getPrintCursorEv@Base 0.4.0
 _ZN6FVTerm14next_attributeE@Base 0.4.0
 _ZN6FVTerm14setPrintCursorEii@Base 0.4.0
 _ZN6FVTerm14term_attributeE@Base 0.4.0
 _ZN6FVTerm14updateTerminalEb@Base 0.4.0
 _ZN6FVTerm14updateTerminalEv@Base 0.4.0
 _ZN6FVTerm16appendLowerRightERPN9FOptiAttr9char_dataE@Base 0.4.0
 _ZN6FVTerm16isInsideTerminalEii@Base 0.4.0
 _ZN6FVTerm17scrollAreaForwardEPNS_9term_areaE@Base 0.4.0
 _ZN6FVTerm17scrollAreaReverseEPNS_9term_areaE@Base 0.4.0
 _ZN6FVTerm17updateVTermCursorEPNS_9term_areaE@Base 0.4.0
 _ZN6FVTerm18appendOutputBufferEi@Base 0.4.0
 _ZN6FVTerm18updateTerminalLineEj@Base 0.4.0
 _ZN6FVTerm19getCoveredCharacterERK6FPointPS_@Base 0.4.0
 _ZN6FVTerm19getCoveredCharacterEiiPS_@Base 0.4.0
 _ZN6FVTerm19startTerminalUpdateEv@Base 0.4.0
 _ZN6FVTerm20finishTerminalUpdateEv@Base 0.4.0
 _ZN6FVTerm20setInsertCursorStyleEb@Base 0.4.0
 _ZN6FVTerm20updateTerminalCursorEv@Base 0.4.0
 _ZN6FVTerm21force_terminal_updateE@Base 0.4.0
 _ZN6FVTerm21processTerminalUpdateEv@Base 0.4.0
 _ZN6FVTerm21stop_terminal_updatesE@Base 0.4.0
 _ZN6FVTerm22getOverlappedCharacterERK6FPointPS_@Base 0.4.0
 _ZN6FVTerm22getOverlappedCharacterEiiPS_@Base 0.4.0
 _ZN6FVTerm23addPreprocessingHandlerEPS_MS_FvvE@Base 0.4.0
 _ZN6FVTerm23delPreprocessingHandlerEPS_@Base 0.4.0
 _ZN6FVTerm23skipped_terminal_updateE@Base 0.4.0
 _ZN6FVTerm23terminal_update_pendingE@Base 0.4.0
 _ZN6FVTerm24terminal_update_completeE@Base 0.4.0
 _ZN6FVTerm4initEv@Base 0.4.0
 _ZN6FVTerm4tcapE@Base 0.4.0
 _ZN6FVTerm5printEPKc@Base 0.4.0
 _ZN6FVTerm5printEPKw@Base 0.4.0
 _ZN6FVTerm5printEPNS_9term_areaEPKc@Base 0.4.0
 _ZN6FVTerm5printEPNS_9term_areaEPKw@Base 0.4.0
 _ZN6FVTerm5printEPNS_9term_areaERK7FString@Base 0.4.0
 _ZN6FVTerm5printEPNS_9term_areaERKSbIwSt11char_traitsIwESaIwEE@Base 0.4.0
 _ZN6FVTerm5printEPNS_9term_areaERKSs@Base 0.4.0
 _ZN6FVTerm5printEPNS_9term_areaERKSt6vectorIN9FOptiAttr9char_dataESaIS4_EE@Base 0.4.0
 _ZN6FVTerm5printEPNS_9term_areaEi@Base 0.4.0
 _ZN6FVTerm5printERK7FString@Base 0.4.0
 _ZN6FVTerm5printERKSbIwSt11char_traitsIwESaIwEE@Base 0.4.0
 _ZN6FVTerm5printERKSs@Base 0.4.0
 _ZN6FVTerm5printERKSt6vectorIN9FOptiAttr9char_dataESaIS2_EE@Base 0.4.0
 _ZN6FVTerm5printEi@Base 0.4.0
 _ZN6FVTerm5vtermE@Base 0.4.0
 _ZN6FVTerm6finishEv@Base 0.4.0
 _ZN6FVTerm6printfEPKcz@Base 0.4.0
 _ZN6FVTerm6printfEPKwz@Base 0.4.0
 _ZN6FVTerm7getAreaERK5FRectPNS_9term_areaE@Base 0.4.0
 _ZN6FVTerm7getAreaERK6FPointPNS_9term_areaE@Base 0.4.0
 _ZN6FVTerm7getAreaEiiPNS_9term_areaE@Base 0.4.0
 _ZN6FVTerm7getAreaEiiiiPNS_9term_areaE@Base 0.4.0
 _ZN6FVTerm7putAreaERK6FPointPNS_9term_areaE@Base 0.4.0
 _ZN6FVTerm7putAreaEiiPNS_9term_areaE@Base 0.4.0
 _ZN6FVTerm8putVTermEv@Base 0.4.0
 _ZN6FVTerm8term_posE@Base 0.4.0
 _ZN6FVTerm8vdesktopE@Base 0.4.0
 _ZN6FVTerm9clearAreaEPNS_9term_areaEi@Base 0.4.0
 _ZN6FVTerm9clearAreaEi@Base 0.4.0
 _ZN6FVTerm9clearTermEi@Base 0.4.0
 _ZN6FVTerm9flush_outEv@Base 0.4.0
 _ZN6FVTerm9isCoveredERK6FPointPNS_9term_areaE@Base 0.4.0
 _ZN6FVTerm9isCoveredEiiPNS_9term_areaE@Base 0.4.0
 _ZN6FVTerm9setTermXYEii@Base 0.4.0
 _ZN6FVTermC1Ebb@Base 0.4.0
 _ZN6FVTermC2Ebb@Base 0.4.0
 _ZN6FVTermD0Ev@Base 0.4.0
 _ZN6FVTermD1Ev@Base 0.4.0
 _ZN6FVTermD2Ev@Base 0.4.0
 _ZN7FButton10onFocusOutEP11FFocusEvent@Base 0.4.0
 _ZN7FButton10onKeyPressEP9FKeyEvent@Base 0.4.0
 _ZN7FButton10setDisableEv@Base 0.4.0
 _ZN7FButton10unsetFocusEv@Base 0.4.0
 _ZN7FButton11onMouseDownEP11FMouseEvent@Base 0.4.0
 _ZN7FButton11onMouseMoveEP11FMouseEvent@Base 0.4.0
 _ZN7FButton11unsetEnableEv@Base 0.4.0
 _ZN7FButton12processClickEv@Base 0.4.0
 _ZN7FButton14setNoUnderlineEb@Base 0.4.0
 _ZN7FButton17updateButtonColorEv@Base 0.4.0
 _ZN7FButton18setBackgroundColorEs@Base 0.4.0
 _ZN7FButton18setForegroundColorEs@Base 0.4.0
 _ZN7FButton20setHotkeyAcceleratorEv@Base 0.4.0
 _ZN7FButton23setFocusBackgroundColorEs@Base 0.4.0
 _ZN7FButton23setFocusForegroundColorEs@Base 0.4.0
 _ZN7FButton24setHotkeyForegroundColorEs@Base 0.4.0
 _ZN7FButton26setInactiveBackgroundColorEs@Base 0.4.0
 _ZN7FButton26setInactiveForegroundColorEs@Base 0.4.0
 _ZN7FButton4drawEv@Base 0.4.0
 _ZN7FButton4hideEv@Base 0.4.0
 _ZN7FButton4initEv@Base 0.4.0
 _ZN7FButton7onAccelEP11FAccelEvent@Base 0.4.0
 _ZN7FButton7onTimerEP11FTimerEvent@Base 0.4.0
 _ZN7FButton7setDownEb@Base 0.4.0
 _ZN7FButton7setFlatEb@Base 0.4.0
 _ZN7FButton7setTextERK7FString@Base 0.4.0
 _ZN7FButton8setFocusEb@Base 0.4.0
 _ZN7FButton8setFocusEv@Base 0.4.0
 _ZN7FButton9getHotkeyEv@Base 0.4.0
 _ZN7FButton9onFocusInEP11FFocusEvent@Base 0.4.0
 _ZN7FButton9onMouseUpEP11FMouseEvent@Base 0.4.0
 _ZN7FButton9setEnableEb@Base 0.4.0
 _ZN7FButton9setEnableEv@Base 0.4.0
 _ZN7FButton9setShadowEb@Base 0.4.0
 _ZN7FButtonC1EP7FWidget@Base 0.4.0
 _ZN7FButtonC1ERK7FStringP7FWidget@Base 0.4.0
 _ZN7FButtonC2EP7FWidget@Base 0.4.0
 _ZN7FButtonC2ERK7FStringP7FWidget@Base 0.4.0
 _ZN7FButtonD0Ev@Base 0.4.0
 _ZN7FButtonD1Ev@Base 0.4.0
 _ZN7FButtonD2Ev@Base 0.4.0
 _ZN7FDialog10drawBorderEv@Base 0.4.0
 _ZN7FDialog10onKeyPressEP9FKeyEvent@Base 0.4.0
 _ZN7FDialog11onMouseDownEP11FMouseEvent@Base 0.4.0
 _ZN7FDialog11onMouseMoveEP11FMouseEvent@Base 0.4.0
 _ZN7FDialog11setZoomItemEv@Base 0.4.0
 _ZN7FDialog12drawTitleBarEv@Base 0.4.0
 _ZN7FDialog13setResizeableEb@Base 0.4.0
 _ZN7FDialog13setScrollableEb@Base 0.4.0
 _ZN7FDialog14activateDialogEv@Base 0.4.0
 _ZN7FDialog14onWindowActiveEP6FEvent@Base 0.4.0
 _ZN7FDialog14onWindowRaisedEP6FEvent@Base 0.4.0
 _ZN7FDialog15onWindowLoweredEP6FEvent@Base 0.4.0
 _ZN7FDialog15setDialogWidgetEb@Base 0.4.0
 _ZN7FDialog16drawDialogShadowEv@Base 0.4.0
 _ZN7FDialog16onWindowInactiveEP6FEvent@Base 0.4.0
 _ZN7FDialog18onMouseDoubleClickEP11FMouseEvent@Base 0.4.0
 _ZN7FDialog19selectFirstMenuItemEv@Base 0.4.0
 _ZN7FDialog4doneEi@Base 0.4.0
 _ZN7FDialog4drawEv@Base 0.4.0
 _ZN7FDialog4execEv@Base 0.4.0
 _ZN7FDialog4hideEv@Base 0.4.0
 _ZN7FDialog4initEv@Base 0.4.0
 _ZN7FDialog4moveEii@Base 0.4.0
 _ZN7FDialog4showEv@Base 0.4.0
 _ZN7FDialog6onHideEP10FHideEvent@Base 0.4.0
 _ZN7FDialog6onShowEP10FShowEvent@Base 0.4.0
 _ZN7FDialog6setPosEiib@Base 0.4.0
 _ZN7FDialog7cb_moveEP7FWidgetPv@Base 0.4.0
 _ZN7FDialog7cb_zoomEP7FWidgetPv@Base 0.4.0
 _ZN7FDialog7onAccelEP11FAccelEvent@Base 0.4.0
 _ZN7FDialog7onCloseEP11FCloseEvent@Base 0.4.0
 _ZN7FDialog7setSizeEiib@Base 0.4.0
 _ZN7FDialog8cb_closeEP7FWidgetPv@Base 0.4.0
 _ZN7FDialog8openMenuEv@Base 0.4.0
 _ZN7FDialog8setModalEb@Base 0.4.0
 _ZN7FDialog9addDialogEP7FWidget@Base 0.4.0
 _ZN7FDialog9delDialogEP7FWidget@Base 0.4.0
 _ZN7FDialog9leaveMenuEv@Base 0.4.0
 _ZN7FDialog9onMouseUpEP11FMouseEvent@Base 0.4.0
 _ZN7FDialogC1EP7FWidget@Base 0.4.0
 _ZN7FDialogC1ERK7FStringP7FWidget@Base 0.4.0
 _ZN7FDialogC2EP7FWidget@Base 0.4.0
 _ZN7FDialogC2ERK7FStringP7FWidget@Base 0.4.0
 _ZN7FDialogD0Ev@Base 0.4.0
 _ZN7FDialogD1Ev@Base 0.4.0
 _ZN7FDialogD2Ev@Base 0.4.0
 _ZN7FObject10timer_listE@Base 0.4.0
 _ZN7FObject11delAllTimerEv@Base 0.4.0
 _ZN7FObject11delOwnTimerEv@Base 0.4.0
 _ZN7FObject14getCurrentTimeEP7timeval@Base 0.4.0
 _ZN7FObject17timer_modify_lockE@Base 0.4.0
 _ZN7FObject5eventEP6FEvent@Base 0.4.0
 _ZN7FObject7onTimerEP11FTimerEvent@Base 0.4.0
 _ZN7FObject8addChildEPS_@Base 0.4.0
 _ZN7FObject8addTimerEi@Base 0.4.0
 _ZN7FObject8delChildEPS_@Base 0.4.0
 _ZN7FObject8delTimerEi@Base 0.4.0
 _ZN7FObjectC1EPS_@Base 0.4.0
 _ZN7FObjectC2EPS_@Base 0.4.0
 _ZN7FObjectD0Ev@Base 0.4.0
 _ZN7FObjectD1Ev@Base 0.4.0
 _ZN7FObjectD2Ev@Base 0.4.0
 _ZN7FString13bad_alloc_strE@Base 0.4.0
 _ZN7FString17setFormatedNumberElc@Base 0.4.0
 _ZN7FString17setFormatedNumberEmc@Base 0.4.0
 _ZN7FString5clearEv@Base 0.4.0
 _ZN7FString5splitERKS_@Base 0.4.0
 _ZN7FString6insertEPKcj@Base 0.4.0
 _ZN7FString6insertEPKwj@Base 0.4.0
 _ZN7FString6insertERKS_j@Base 0.4.0
 _ZN7FString6insertEcj@Base 0.4.0
 _ZN7FString6insertEwj@Base 0.4.0
 _ZN7FString6removeEjj@Base 0.4.0
 _ZN7FString7_insertEjjPKw@Base 0.4.0
 _ZN7FString7replaceEPKcPKw@Base 0.4.0
 _ZN7FString7replaceEPKcRKS_@Base 0.4.0
 _ZN7FString7replaceEPKcRKSbIwSt11char_traitsIwESaIwEE@Base 0.4.0
 _ZN7FString7replaceEPKcRKSs@Base 0.4.0
 _ZN7FString7replaceEPKcS1_@Base 0.4.0
 _ZN7FString7replaceEPKcc@Base 0.4.0
 _ZN7FString7replaceEPKcw@Base 0.4.0
 _ZN7FString7replaceEPKwRKS_@Base 0.4.0
 _ZN7FString7replaceEPKwRKSbIwSt11char_traitsIwESaIwEE@Base 0.4.0
 _ZN7FString7replaceEPKwS1_@Base 0.4.0
 _ZN7FString7replaceEPKwc@Base 0.4.0
 _ZN7FString7replaceEPKww@Base 0.4.0
 _ZN7FString7replaceERKS_PKc@Base 0.4.0
 _ZN7FString7replaceERKS_PKw@Base 0.4.0
 _ZN7FString7replaceERKS_RKSbIwSt11char_traitsIwESaIwEE@Base 0.4.0
 _ZN7FString7replaceERKS_RKSs@Base 0.4.0
 _ZN7FString7replaceERKS_S1_@Base 0.4.0
 _ZN7FString7replaceERKS_c@Base 0.4.0
 _ZN7FString7replaceERKS_w@Base 0.4.0
 _ZN7FString7replaceERKSbIwSt11char_traitsIwESaIwEEPKc@Base 0.4.0
 _ZN7FString7replaceERKSbIwSt11char_traitsIwESaIwEEPKw@Base 0.4.0
 _ZN7FString7replaceERKSbIwSt11char_traitsIwESaIwEERKS_@Base 0.4.0
 _ZN7FString7replaceERKSbIwSt11char_traitsIwESaIwEERKSs@Base 0.4.0
 _ZN7FString7replaceERKSbIwSt11char_traitsIwESaIwEES5_@Base 0.4.0
 _ZN7FString7replaceERKSbIwSt11char_traitsIwESaIwEEc@Base 0.4.0
 _ZN7FString7replaceERKSbIwSt11char_traitsIwESaIwEEw@Base 0.4.0
 _ZN7FString7replaceERKSsPKc@Base 0.4.0
 _ZN7FString7replaceERKSsPKw@Base 0.4.0
 _ZN7FString7replaceERKSsRKS_@Base 0.4.0
 _ZN7FString7replaceERKSsRKSbIwSt11char_traitsIwESaIwEE@Base 0.4.0
 _ZN7FString7replaceERKSsS1_@Base 0.4.0
 _ZN7FString7replaceERKSsc@Base 0.4.0
 _ZN7FString7replaceERKSsw@Base 0.4.0
 _ZN7FString7replaceEcPKc@Base 0.4.0
 _ZN7FString7replaceEcPKw@Base 0.4.0
 _ZN7FString7replaceEcRKS_@Base 0.4.0
 _ZN7FString7replaceEcRKSbIwSt11char_traitsIwESaIwEE@Base 0.4.0
 _ZN7FString7replaceEcRKSs@Base 0.4.0
 _ZN7FString7replaceEcc@Base 0.4.0
 _ZN7FString7replaceEcw@Base 0.4.0
 _ZN7FString7replaceEwPKc@Base 0.4.0
 _ZN7FString7replaceEwPKw@Base 0.4.0
 _ZN7FString7replaceEwRKS_@Base 0.4.0
 _ZN7FString7replaceEwRKSbIwSt11char_traitsIwESaIwEE@Base 0.4.0
 _ZN7FString7replaceEwRKSs@Base 0.4.0
 _ZN7FString7replaceEww@Base 0.4.0
 _ZN7FString7sprintfEPKcz@Base 0.4.0
 _ZN7FString7sprintfEPKwz@Base 0.4.0
 _ZN7FString8includesEPKc@Base 0.4.0
 _ZN7FString8includesEPKw@Base 0.4.0
 _ZN7FString8includesERKS_@Base 0.4.0
 _ZN7FString8includesEc@Base 0.4.0
 _ZN7FString8includesEw@Base 0.4.0
 _ZN7FString9overwriteEPKwj@Base 0.4.0
 _ZN7FString9overwriteERKS_j@Base 0.4.0
 _ZN7FString9overwriteEwj@Base 0.4.0
 _ZN7FString9setNumberEei@Base 0.4.0
 _ZN7FString9setNumberEl@Base 0.4.0
 _ZN7FString9setNumberEm@Base 0.4.0
 _ZN7FString9setStringEPKc@Base 0.4.0
 _ZN7FString9setStringEPKw@Base 0.4.0
 _ZN7FStringC1EPKc@Base 0.4.0
 _ZN7FStringC1EPKw@Base 0.4.0
 _ZN7FStringC1ERKS_@Base 0.4.0
 _ZN7FStringC1ERKSbIwSt11char_traitsIwESaIwEE@Base 0.4.0
 _ZN7FStringC1ERKSs@Base 0.4.0
 _ZN7FStringC1Ec@Base 0.4.0
 _ZN7FStringC1Ei@Base 0.4.0
 _ZN7FStringC1Eic@Base 0.4.0
 _ZN7FStringC1Eiw@Base 0.4.0
 _ZN7FStringC1Ej@Base 0.4.0
 _ZN7FStringC1Ejc@Base 0.4.0
 _ZN7FStringC1Ejw@Base 0.4.0
 _ZN7FStringC1Ev@Base 0.4.0
 _ZN7FStringC1Ew@Base 0.4.0
 _ZN7FStringC2EPKc@Base 0.4.0
 _ZN7FStringC2EPKw@Base 0.4.0
 _ZN7FStringC2ERKS_@Base 0.4.0
 _ZN7FStringC2ERKSbIwSt11char_traitsIwESaIwEE@Base 0.4.0
 _ZN7FStringC2ERKSs@Base 0.4.0
 _ZN7FStringC2Ec@Base 0.4.0
 _ZN7FStringC2Ei@Base 0.4.0
 _ZN7FStringC2Eic@Base 0.4.0
 _ZN7FStringC2Eiw@Base 0.4.0
 _ZN7FStringC2Ej@Base 0.4.0
 _ZN7FStringC2Ejc@Base 0.4.0
 _ZN7FStringC2Ejw@Base 0.4.0
 _ZN7FStringC2Ev@Base 0.4.0
 _ZN7FStringC2Ew@Base 0.4.0
 _ZN7FStringD0Ev@Base 0.4.0
 _ZN7FStringD1Ev@Base 0.4.0
 _ZN7FStringD2Ev@Base 0.4.0
 _ZN7FStringaSEPKc@Base 0.4.0
 _ZN7FStringaSEPKw@Base 0.4.0
 _ZN7FStringaSERKS_@Base 0.4.0
 _ZN7FStringaSERKSbIwSt11char_traitsIwESaIwEE@Base 0.4.0
 _ZN7FStringaSERKSs@Base 0.4.0
 _ZN7FStringaSEc@Base 0.4.0
 _ZN7FStringaSEw@Base 0.4.0
 _ZN7FStringclEv@Base 0.4.0
 _ZN7FStringixEi@Base 0.4.0
 _ZN7FStringixEj@Base 0.4.0
 _ZN7FStringlsERKS_@Base 0.4.0
 _ZN7FStringlsEc@Base 0.4.0
 _ZN7FStringlsEd@Base 0.4.0
 _ZN7FStringlsEe@Base 0.4.0
 _ZN7FStringlsEf@Base 0.4.0
 _ZN7FStringlsEi@Base 0.4.0
 _ZN7FStringlsEj@Base 0.4.0
 _ZN7FStringlsEl@Base 0.4.0
 _ZN7FStringlsEm@Base 0.4.0
 _ZN7FStringlsEs@Base 0.4.0
 _ZN7FStringlsEt@Base 0.4.0
 _ZN7FStringlsEw@Base 0.4.0
 _ZN7FStringpLEPKc@Base 0.4.0
 _ZN7FStringpLEPKw@Base 0.4.0
 _ZN7FStringpLERKS_@Base 0.4.0
 _ZN7FStringpLERKSbIwSt11char_traitsIwESaIwEE@Base 0.4.0
 _ZN7FStringpLERKSs@Base 0.4.0
 _ZN7FStringpLEc@Base 0.4.0
 _ZN7FStringpLEw@Base 0.4.0
 _ZN7FStringplEPKc@Base 0.4.0
 _ZN7FStringplEPKw@Base 0.4.0
 _ZN7FStringplERKS_@Base 0.4.0
 _ZN7FStringplERKSbIwSt11char_traitsIwESaIwEE@Base 0.4.0
 _ZN7FStringplERKSs@Base 0.4.0
 _ZN7FStringplEc@Base 0.4.0
 _ZN7FStringplEw@Base 0.4.0
 _ZN7FStringrsERS_@Base 0.4.0
 _ZN7FStringrsERSbIwSt11char_traitsIwESaIwEE@Base 0.4.0
 _ZN7FStringrsERc@Base 0.4.0
 _ZN7FStringrsERd@Base 0.4.0
 _ZN7FStringrsERf@Base 0.4.0
 _ZN7FStringrsERi@Base 0.4.0
 _ZN7FStringrsERj@Base 0.4.0
 _ZN7FStringrsERl@Base 0.4.0
 _ZN7FStringrsERm@Base 0.4.0
 _ZN7FStringrsERs@Base 0.4.0
 _ZN7FStringrsERt@Base 0.4.0
 _ZN7FStringrsERw@Base 0.4.0
 _ZN7FSwitch10onKeyPressEP9FKeyEvent@Base 0.4.0
 _ZN7FSwitch11onMouseDownEP11FMouseEvent@Base 0.4.0
 _ZN7FSwitch15drawCheckButtonEv@Base 0.4.0
 _ZN7FSwitch4drawEv@Base 0.4.0
 _ZN7FSwitch7setTextERK7FString@Base 0.4.0
 _ZN7FSwitch9onMouseUpEP11FMouseEvent@Base 0.4.0
 _ZN7FSwitchC1EP7FWidget@Base 0.4.0
 _ZN7FSwitchC1ERK7FStringP7FWidget@Base 0.4.0
 _ZN7FSwitchC2EP7FWidget@Base 0.4.0
 _ZN7FSwitchC2ERK7FStringP7FWidget@Base 0.4.0
 _ZN7FSwitchD0Ev@Base 0.4.0
 _ZN7FSwitchD1Ev@Base 0.4.0
 _ZN7FSwitchD2Ev@Base 0.4.0
 _ZN7FWidget10adjustSizeEv@Base 0.4.0
 _ZN7FWidget10drawBorderEiiii@Base 0.4.0
 _ZN7FWidget10drawBorderEv@Base 0.4.0
 _ZN7FWidget10drawShadowEv@Base 0.4.0
 _ZN7FWidget10getMenuBarEv@Base 0.4.0
 _ZN7FWidget10onFocusOutEP11FFocusEvent@Base 0.4.0
 _ZN7FWidget10onKeyPressEP9FKeyEvent@Base 0.4.0
 _ZN7FWidget10setDisableEv@Base 0.4.0
 _ZN7FWidget10setMenuBarEP8FMenuBar@Base 0.4.0
 _ZN7FWidget10unsetFocusEv@Base 0.4.0
 _ZN7FWidget11addCallbackERK7FStringPFvPS_PvES4_@Base 0.4.0
 _ZN7FWidget11addCallbackERK7FStringPS_MS_FvS3_PvES4_@Base 0.4.0
 _ZN7FWidget11clearShadowEv@Base 0.4.0
 _ZN7FWidget11delCallbackEPFvPS_PvE@Base 0.4.0
 _ZN7FWidget11delCallbackEPS_@Base 0.4.0
 _ZN7FWidget11dialog_listE@Base 0.4.0
 _ZN7FWidget11getOpenMenuEv@Base 0.4.0
 _ZN7FWidget11getPrintPosEv@Base 0.4.0
 _ZN7FWidget11onMouseDownEP11FMouseEvent@Base 0.4.0
 _ZN7FWidget11onMouseMoveEP11FMouseEvent@Base 0.4.0
 _ZN7FWidget11setGeometryERK5FRectb@Base 0.4.0
 _ZN7FWidget11setGeometryEiiiib@Base 0.4.0
 _ZN7FWidget11setOpenMenuEPS_@Base 0.4.0
 _ZN7FWidget11setPrintPosEii@Base 0.4.0
 _ZN7FWidget11setTermSizeEii@Base 0.4.0
 _ZN7FWidget11unsetEnableEv@Base 0.4.0
 _ZN7FWidget11window_listE@Base 0.4.0
 _ZN7FWidget12close_widgetE@Base 0.4.0
 _ZN7FWidget12delCallbacksEv@Base 0.4.0
 _ZN7FWidget12emitCallbackERK7FString@Base 0.4.0
 _ZN7FWidget12getPrintAreaEv@Base 0.4.0
 _ZN7FWidget12getStatusBarEv@Base 0.4.0
 _ZN7FWidget12init_desktopE@Base 0.4.0
 _ZN7FWidget12setCursorPosEii@Base 0.4.0
 _ZN7FWidget12setStatusBarEP10FStatusBar@Base 0.4.0
 _ZN7FWidget13childWidgetAtEPS_ii@Base 0.4.0
 _ZN7FWidget13dbl_line_maskD1Ev@Base 0.4.0
 _ZN7FWidget13dbl_line_maskD2Ev@Base 0.4.0
 _ZN7FWidget13getMainWidgetEv@Base 0.4.0
 _ZN7FWidget13modal_dialogsE@Base 0.4.0
 _ZN7FWidget13setColorThemeEv@Base 0.4.0
 _ZN7FWidget13setMainWidgetEPS_@Base 0.4.0
 _ZN7FWidget13setShadowSizeEii@Base 0.4.0
 _ZN7FWidget13setTermOffsetEv@Base 0.4.0
 _ZN7FWidget13setTopPaddingEib@Base 0.4.0
 _ZN7FWidget14addAcceleratorEiPS_@Base 0.4.0
 _ZN7FWidget14delAcceleratorEPS_@Base 0.4.0
 _ZN7FWidget14detectTermSizeEv@Base 0.4.0
 _ZN7FWidget14drawFlatBorderEv@Base 0.4.0
 _ZN7FWidget14focusLastChildEv@Base 0.4.0
 _ZN7FWidget14focusNextChildEv@Base 0.4.0
 _ZN7FWidget14focusPrevChildEv@Base 0.4.0
 _ZN7FWidget14onChildFocusInEP11FFocusEvent@Base 0.4.0
 _ZN7FWidget14setFocusWidgetEPS_@Base 0.4.0
 _ZN7FWidget14setLeftPaddingEib@Base 0.4.0
 _ZN7FWidget15clearFlatBorderEv@Base 0.4.0
 _ZN7FWidget15focusFirstChildEv@Base 0.4.0
 _ZN7FWidget15onChildFocusOutEP11FFocusEvent@Base 0.4.0
 _ZN7FWidget15setParentOffsetEv@Base 0.4.0
 _ZN7FWidget15setRightPaddingEib@Base 0.4.0
 _ZN7FWidget16adjustSizeGlobalEv@Base 0.4.0
 _ZN7FWidget16getClickedWidgetEv@Base 0.4.0
 _ZN7FWidget16setBottomPaddingEib@Base 0.4.0
 _ZN7FWidget16setClickedWidgetEPS_@Base 0.4.0
 _ZN7FWidget16setVisibleCursorEb@Base 0.4.0
 _ZN7FWidget16setVisibleCursorEv@Base 0.4.0
 _ZN7FWidget16show_root_widgetE@Base 0.4.0
 _ZN7FWidget17getMoveSizeWidgetEv@Base 0.4.0
 _ZN7FWidget17setDoubleFlatLineEN2fc5sidesEb@Base 0.4.0
 _ZN7FWidget17setDoubleFlatLineEN2fc5sidesEib@Base 0.4.0
 _ZN7FWidget17setMoveSizeWidgetEPS_@Base 0.4.0
 _ZN7FWidget18always_on_top_listE@Base 0.4.0
 _ZN7FWidget18doubleFlatLine_refEN2fc5sidesE@Base 0.4.0
 _ZN7FWidget18onMouseDoubleClickEP11FMouseEvent@Base 0.4.0
 _ZN7FWidget18redraw_root_widgetE@Base 0.4.0
 _ZN7FWidget18unsetVisibleCursorEv@Base 0.4.0
 _ZN7FWidget19setStatusbarMessageERK7FString@Base 0.4.0
 _ZN7FWidget22getLastFocusableWidgetESt4listIP7FObjectSaIS2_EE@Base 0.4.0
 _ZN7FWidget22numOfFocusableChildrenEv@Base 0.4.0
 _ZN7FWidget23addPreprocessingHandlerEP6FVTermMS0_FvvE@Base 0.4.0
 _ZN7FWidget23delPreprocessingHandlerEP6FVTerm@Base 0.4.0
 _ZN7FWidget23getFirstFocusableWidgetESt4listIP7FObjectSaIS2_EE@Base 0.4.0
 _ZN7FWidget24setTermOffsetWithPaddingEv@Base 0.4.0
 _ZN7FWidget2wcE@Base 0.4.0
 _ZN7FWidget4drawEv@Base 0.4.0
 _ZN7FWidget4hideEv@Base 0.4.0
 _ZN7FWidget4initEv@Base 0.4.0
 _ZN7FWidget4moveERK6FPoint@Base 0.4.0
 _ZN7FWidget4moveEii@Base 0.4.0
 _ZN7FWidget4quitEv@Base 0.4.0
 _ZN7FWidget4setXEib@Base 0.4.0
 _ZN7FWidget4setYEib@Base 0.4.0
 _ZN7FWidget4showEv@Base 0.4.0
 _ZN7FWidget5closeEv@Base 0.4.0
 _ZN7FWidget5eventEP6FEvent@Base 0.4.0
 _ZN7FWidget6finishEv@Base 0.4.0
 _ZN7FWidget6onHideEP10FHideEvent@Base 0.4.0
 _ZN7FWidget6onShowEP10FShowEvent@Base 0.4.0
 _ZN7FWidget6redrawEv@Base 0.4.0
 _ZN7FWidget6resizeEv@Base 0.4.0
 _ZN7FWidget6setPosERK6FPointb@Base 0.4.0
 _ZN7FWidget6setPosEiib@Base 0.4.0
 _ZN7FWidget7menubarE@Base 0.4.0
 _ZN7FWidget7onAccelEP11FAccelEvent@Base 0.4.0
 _ZN7FWidget7onCloseEP11FCloseEvent@Base 0.4.0
 _ZN7FWidget7onKeyUpEP9FKeyEvent@Base 0.4.0
 _ZN7FWidget7onWheelEP11FWheelEvent@Base 0.4.0
 _ZN7FWidget7setSizeEiib@Base 0.4.0
 _ZN7FWidget8hideableE@Base 0.4.0
 _ZN7FWidget8onResizeEP12FResizeEvent@Base 0.4.0
 _ZN7FWidget8setColorEv@Base 0.4.0
 _ZN7FWidget8setFocusEb@Base 0.4.0
 _ZN7FWidget8setFocusEv@Base 0.4.0
 _ZN7FWidget8setWidthEib@Base 0.4.0
 _ZN7FWidget9onFocusInEP11FFocusEvent@Base 0.4.0
 _ZN7FWidget9onKeyDownEP9FKeyEvent@Base 0.4.0
 _ZN7FWidget9onMouseUpEP11FMouseEvent@Base 0.4.0
 _ZN7FWidget9setEnableEb@Base 0.4.0
 _ZN7FWidget9setEnableEv@Base 0.4.0
 _ZN7FWidget9setHeightEib@Base 0.4.0
 _ZN7FWidget9statusbarE@Base 0.4.0
 _ZN7FWidgetC1EPS_b@Base 0.4.0
 _ZN7FWidgetC2EPS_b@Base 0.4.0
 _ZN7FWidgetD0Ev@Base 0.4.0
 _ZN7FWidgetD1Ev@Base 0.4.0
 _ZN7FWidgetD2Ev@Base 0.4.0
 _ZN7FWindow10adjustSizeEv@Base 0.4.0
 _ZN7FWindow10drawBorderEv@Base 0.4.0
 _ZN7FWindow10swapWindowEP7FWidgetS1_@Base 0.4.0
 _ZN7FWindow10zoomWindowEv@Base 0.4.0
 _ZN7FWindow11lowerWindowEP7FWidget@Base 0.4.0
 _ZN7FWindow11raiseWindowEP7FWidget@Base 0.4.0
 _ZN7FWindow11setGeometryEiiiib@Base 0.4.0
 _ZN7FWindow13setResizeableEb@Base 0.4.0
 _ZN7FWindow13setResizeableEv@Base 0.4.0
 _ZN7FWindow13setShadowSizeEii@Base 0.4.0
 _ZN7FWindow14activateWindowEb@Base 0.4.0
 _ZN7FWindow14getWindowLayerEPK7FWidget@Base 0.4.0
 _ZN7FWindow14onWindowActiveEP6FEvent@Base 0.4.0
 _ZN7FWindow14onWindowRaisedEP6FEvent@Base 0.4.0
 _ZN7FWindow14setAlwaysOnTopEb@Base 0.4.0
 _ZN7FWindow15getActiveWindowEv@Base 0.4.0
 _ZN7FWindow15getWindowWidgetEPK7FWidget@Base 0.4.0
 _ZN7FWindow15onWindowLoweredEP6FEvent@Base 0.4.0
 _ZN7FWindow15previous_windowE@Base 0.4.0
 _ZN7FWindow15setActiveWindowEPS_@Base 0.4.0
 _ZN7FWindow15setWindowWidgetEb@Base 0.4.0
 _ZN7FWindow16onWindowInactiveEP6FEvent@Base 0.4.0
 _ZN7FWindow17getWindowWidgetAtEii@Base 0.4.0
 _ZN7FWindow17unsetActiveWindowEv@Base 0.4.0
 _ZN7FWindow18activatePrevWindowEv@Base 0.4.0
 _ZN7FWindow18processAlwaysOnTopEv@Base 0.4.0
 _ZN7FWindow18switchToPrevWindowEv@Base 0.4.0
 _ZN7FWindow20setTransparentShadowEb@Base 0.4.0
 _ZN7FWindow20setWindowFocusWidgetEPK7FWidget@Base 0.4.0
 _ZN7FWindow25deleteFromAlwaysOnTopListEP7FWidget@Base 0.4.0
 _ZN7FWindow4hideEv@Base 0.4.0
 _ZN7FWindow4moveEii@Base 0.4.0
 _ZN7FWindow4setXEib@Base 0.4.0
 _ZN7FWindow4setYEib@Base 0.4.0
 _ZN7FWindow4showEv@Base 0.4.0
 _ZN7FWindow5eventEP6FEvent@Base 0.4.0
 _ZN7FWindow6setPosEiib@Base 0.4.0
 _ZN7FWindow7setSizeEiib@Base 0.4.0
 _ZN7FWindow8setWidthEib@Base 0.4.0
 _ZN7FWindow9addWindowEP7FWidget@Base 0.4.0
 _ZN7FWindow9delWindowEP7FWidget@Base 0.4.0
 _ZN7FWindow9setHeightEib@Base 0.4.0
 _ZN7FWindow9setShadowEb@Base 0.4.0
 _ZN7FWindowC1EP7FWidget@Base 0.4.0
 _ZN7FWindowC2EP7FWidget@Base 0.4.0
 _ZN7FWindowD0Ev@Base 0.4.0
 _ZN7FWindowD1Ev@Base 0.4.0
 _ZN7FWindowD2Ev@Base 0.4.0
 _ZN8FListBox10adjustSizeEv@Base 0.4.0
 _ZN8FListBox10onFocusOutEP11FFocusEvent@Base 0.4.0
 _ZN8FListBox10onKeyPressEP9FKeyEvent@Base 0.4.0
 _ZN8FListBox10setDisableEv@Base 0.4.0
 _ZN8FListBox10unsetFocusEv@Base 0.4.0
 _ZN8FListBox11onMouseDownEP11FMouseEvent@Base 0.4.0
 _ZN8FListBox11onMouseMoveEP11FMouseEvent@Base 0.4.0
 _ZN8FListBox11setGeometryEiiiib@Base 0.4.0
 _ZN8FListBox12processClickEv@Base 0.4.0
 _ZN8FListBox13adjustYOffsetEv@Base 0.4.0
 _ZN8FListBox13cb_HBarChangeEP7FWidgetPv@Base 0.4.0
 _ZN8FListBox13cb_VBarChangeEP7FWidgetPv@Base 0.4.0
 _ZN8FListBox13processSelectEv@Base 0.4.0
 _ZN8FListBox14processChangedEv@Base 0.4.0
 _ZN8FListBox14setCurrentItemEN9__gnu_cxx17__normal_iteratorIP12FListBoxItemSt6vectorIS2_SaIS2_EEEE@Base 0.4.0
 _ZN8FListBox14setCurrentItemEi@Base 0.4.0
 _ZN8FListBox18onMouseDoubleClickEP11FMouseEvent@Base 0.4.0
 _ZN8FListBox18showInsideBracketsEiN2fc13brackets_typeE@Base 0.4.0
 _ZN8FListBox22recalculateVerticalBarEi@Base 0.4.0
 _ZN8FListBox24recalculateHorizontalBarEib@Base 0.4.0
 _ZN8FListBox4drawEv@Base 0.4.0
 _ZN8FListBox4hideEv@Base 0.4.0
 _ZN8FListBox4initEv@Base 0.4.0
 _ZN8FListBox5clearEv@Base 0.4.0
 _ZN8FListBox6insertE12FListBoxItem@Base 0.4.0
 _ZN8FListBox6insertERK7FStringN2fc13brackets_typeEbPv@Base 0.4.0
 _ZN8FListBox6insertElN2fc13brackets_typeEbPv@Base 0.4.0
 _ZN8FListBox6removeEi@Base 0.4.0
 _ZN8FListBox7onTimerEP11FTimerEvent@Base 0.4.0
 _ZN8FListBox7onWheelEP11FWheelEvent@Base 0.4.0
 _ZN8FListBox7setTextERK7FString@Base 0.4.0
 _ZN8FListBox8drawListEv@Base 0.4.0
 _ZN8FListBox8setFocusEb@Base 0.4.0
 _ZN8FListBox8setFocusEv@Base 0.4.0
 _ZN8FListBox9drawLabelEv@Base 0.4.0
 _ZN8FListBox9onFocusInEP11FFocusEvent@Base 0.4.0
 _ZN8FListBox9onMouseUpEP11FMouseEvent@Base 0.4.0
 _ZN8FListBoxC1EP7FWidget@Base 0.4.0
 _ZN8FListBoxC2EP7FWidget@Base 0.4.0
 _ZN8FListBoxD0Ev@Base 0.4.0
 _ZN8FListBoxD1Ev@Base 0.4.0
 _ZN8FListBoxD2Ev@Base 0.4.0
 _ZN8FMenuBar10adjustSizeEv@Base 0.4.0
 _ZN8FMenuBar10hotkeyMenuERP9FKeyEvent@Base 0.4.0
 _ZN8FMenuBar10onKeyPressEP9FKeyEvent@Base 0.4.0
 _ZN8FMenuBar11adjustItemsEv@Base 0.4.0
 _ZN8FMenuBar11onMouseDownEP11FMouseEvent@Base 0.4.0
 _ZN8FMenuBar11onMouseMoveEP11FMouseEvent@Base 0.4.0
 _ZN8FMenuBar12getHotkeyPosERPwS1_j@Base 0.4.0
 _ZN8FMenuBar12leaveMenuBarEv@Base 0.4.0
 _ZN8FMenuBar14selectNextItemEv@Base 0.4.0
 _ZN8FMenuBar14selectPrevItemEv@Base 0.4.0
 _ZN8FMenuBar19calculateDimensionsEv@Base 0.4.0
 _ZN8FMenuBar19cb_item_deactivatedEP7FWidgetPv@Base 0.4.0
 _ZN8FMenuBar4drawEv@Base 0.4.0
 _ZN8FMenuBar4hideEv@Base 0.4.0
 _ZN8FMenuBar4initEv@Base 0.4.0
 _ZN8FMenuBar7onAccelEP11FAccelEvent@Base 0.4.0
 _ZN8FMenuBar9drawItemsEv@Base 0.4.0
 _ZN8FMenuBar9onMouseUpEP11FMouseEvent@Base 0.4.0
 _ZN8FMenuBar9resetMenuEv@Base 0.4.0
 _ZN8FMenuBarC1EP7FWidget@Base 0.4.0
 _ZN8FMenuBarC2EP7FWidget@Base 0.4.0
 _ZN8FMenuBarD0Ev@Base 0.4.0
 _ZN8FMenuBarD1Ev@Base 0.4.0
 _ZN8FMenuBarD2Ev@Base 0.4.0
 _ZN8FTermcap11osc_supportE@Base 0.4.0
 _ZN8FTermcap13eat_nl_glitchE@Base 0.4.0
 _ZN8FTermcap17no_utf8_acs_charsE@Base 0.4.0
 _ZN8FTermcap18ansi_default_colorE@Base 0.4.0
 _ZN8FTermcap18attr_without_colorE@Base 0.4.0
 _ZN8FTermcap21automatic_left_marginE@Base 0.4.0
 _ZN8FTermcap22automatic_right_marginE@Base 0.4.0
 _ZN8FTermcap22background_color_eraseE@Base 0.4.0
 _ZN8FTermcap4tcapE@Base 0.4.0
 _ZN8FTermcap7tabstopE@Base 0.4.0
 _ZN8FTermcap9max_colorE@Base 0.4.0
 _ZN8FToolTip10adjustSizeEv@Base 0.4.0
 _ZN8FToolTip11onMouseDownEP11FMouseEvent@Base 0.4.0
 _ZN8FToolTip19calculateDimensionsEv@Base 0.4.0
 _ZN8FToolTip4drawEv@Base 0.4.0
 _ZN8FToolTip4hideEv@Base 0.4.0
 _ZN8FToolTip4initEv@Base 0.4.0
 _ZN8FToolTip4showEv@Base 0.4.0
 _ZN8FToolTip7setTextERK7FString@Base 0.4.0
 _ZN8FToolTipC1EP7FWidget@Base 0.4.0
 _ZN8FToolTipC1ERK7FStringP7FWidget@Base 0.4.0
 _ZN8FToolTipC2EP7FWidget@Base 0.4.0
 _ZN8FToolTipC2ERK7FStringP7FWidget@Base 0.4.0
 _ZN8FToolTipD0Ev@Base 0.4.0
 _ZN8FToolTipD1Ev@Base 0.4.0
 _ZN8FToolTipD2Ev@Base 0.4.0
 _ZN9FCheckBox15drawCheckButtonEv@Base 0.4.0
 _ZN9FCheckBox4drawEv@Base 0.4.0
 _ZN9FCheckBox4initEv@Base 0.4.0
 _ZN9FCheckBoxC1EP7FWidget@Base 0.4.0
 _ZN9FCheckBoxC1ERK7FStringP7FWidget@Base 0.4.0
 _ZN9FCheckBoxC2EP7FWidget@Base 0.4.0
 _ZN9FCheckBoxC2ERK7FStringP7FWidget@Base 0.4.0
 _ZN9FCheckBoxD0Ev@Base 0.4.0
 _ZN9FCheckBoxD1Ev@Base 0.4.0
 _ZN9FCheckBoxD2Ev@Base 0.4.0
 _ZN9FKeyEvent6acceptEv@Base 0.4.0
 _ZN9FKeyEvent6ignoreEv@Base 0.4.0
 _ZN9FKeyEventC1Eii@Base 0.4.0
 _ZN9FKeyEventC2Eii@Base 0.4.0
 _ZN9FKeyEventD0Ev@Base 0.4.0
 _ZN9FKeyEventD1Ev@Base 0.4.0
 _ZN9FKeyEventD2Ev@Base 0.4.0
 _ZN9FLineEdit10adjustSizeEv@Base 0.4.0
 _ZN9FLineEdit10onFocusOutEP11FFocusEvent@Base 0.4.0
 _ZN9FLineEdit10onKeyPressEP9FKeyEvent@Base 0.4.0
 _ZN9FLineEdit10setDisableEv@Base 0.4.0
 _ZN9FLineEdit10unsetFocusEv@Base 0.4.0
 _ZN9FLineEdit11adjustLabelEv@Base 0.4.0
 _ZN9FLineEdit11onMouseDownEP11FMouseEvent@Base 0.4.0
 _ZN9FLineEdit11onMouseMoveEP11FMouseEvent@Base 0.4.0
 _ZN9FLineEdit11unsetEnableEv@Base 0.4.0
 _ZN9FLineEdit12setLabelTextERK7FString@Base 0.4.0
 _ZN9FLineEdit14drawInputFieldEv@Base 0.4.0
 _ZN9FLineEdit14processChangedEv@Base 0.4.0
 _ZN9FLineEdit15processActivateEv@Base 0.4.0
 _ZN9FLineEdit19setLabelOrientationENS_7label_oE@Base 0.4.0
 _ZN9FLineEdit4drawEv@Base 0.4.0
 _ZN9FLineEdit4hideEv@Base 0.4.0
 _ZN9FLineEdit4initEv@Base 0.4.0
 _ZN9FLineEdit5clearEv@Base 0.4.0
 _ZN9FLineEdit6onHideEP10FHideEvent@Base 0.4.0
 _ZN9FLineEdit7onAccelEP11FAccelEvent@Base 0.4.0
 _ZN9FLineEdit7onTimerEP11FTimerEvent@Base 0.4.0
 _ZN9FLineEdit7setTextERK7FString@Base 0.4.0
 _ZN9FLineEdit8setFocusEb@Base 0.4.0
 _ZN9FLineEdit8setFocusEv@Base 0.4.0
 _ZN9FLineEdit9hasHotkeyEv@Base 0.4.0
 _ZN9FLineEdit9onFocusInEP11FFocusEvent@Base 0.4.0
 _ZN9FLineEdit9onMouseUpEP11FMouseEvent@Base 0.4.0
 _ZN9FLineEdit9setEnableEb@Base 0.4.0
 _ZN9FLineEdit9setEnableEv@Base 0.4.0
 _ZN9FLineEdit9setShadowEb@Base 0.4.0
 _ZN9FLineEditC1EP7FWidget@Base 0.4.0
 _ZN9FLineEditC1ERK7FStringP7FWidget@Base 0.4.0
 _ZN9FLineEditC2EP7FWidget@Base 0.4.0
 _ZN9FLineEditC2ERK7FStringP7FWidget@Base 0.4.0
 _ZN9FLineEditD0Ev@Base 0.4.0
 _ZN9FLineEditD1Ev@Base 0.4.0
 _ZN9FLineEditD2Ev@Base 0.4.0
 _ZN9FLineEditaSERK7FString@Base 0.4.0
 _ZN9FLineEditlsERK7FString@Base 0.4.0
 _ZN9FLineEditlsEd@Base 0.4.0
 _ZN9FLineEditlsEe@Base 0.4.0
 _ZN9FLineEditlsEf@Base 0.4.0
 _ZN9FLineEditlsEi@Base 0.4.0
 _ZN9FLineEditlsEj@Base 0.4.0
 _ZN9FLineEditlsEl@Base 0.4.0
 _ZN9FLineEditlsEm@Base 0.4.0
 _ZN9FLineEditlsEw@Base 0.4.0
 _ZN9FLineEditrsER7FString@Base 0.4.0
 _ZN9FListView10adjustSizeEv@Base 0.4.0
 _ZN9FListView10appendItemEP13FListViewItem@Base 0.4.0
 _ZN9FListView10onFocusOutEP11FFocusEvent@Base 0.4.0
 _ZN9FListView10onKeyPressEP9FKeyEvent@Base 0.4.0
 _ZN9FListView11onMouseDownEP11FMouseEvent@Base 0.4.0
 _ZN9FListView11onMouseMoveEP11FMouseEvent@Base 0.4.0
 _ZN9FListView11setGeometryEiiiib@Base 0.4.0
 _ZN9FListView11stepForwardEi@Base 0.4.0
 _ZN9FListView11stepForwardEv@Base 0.4.0
 _ZN9FListView12drawListLineEPK13FListViewItembb@Base 0.4.0
 _ZN9FListView12processClickEv@Base 0.4.0
 _ZN9FListView12stepBackwardEi@Base 0.4.0
 _ZN9FListView12stepBackwardEv@Base 0.4.0
 _ZN9FListView13cb_HBarChangeEP7FWidgetPv@Base 0.4.0
 _ZN9FListView13cb_VBarChangeEP7FWidgetPv@Base 0.4.0
 _ZN9FListView13setColumnTextEiRK7FString@Base 0.4.0
 _ZN9FListView14adjustViewportEv@Base 0.4.0
 _ZN9FListView14getAlignOffsetEN2fc14text_alignmentEjj@Base 0.4.0
 _ZN9FListView14processChangedEv@Base 0.4.0
 _ZN9FListView16drawColumnLabelsEv@Base 0.4.0
 _ZN9FListView18onMouseDoubleClickEP11FMouseEvent@Base 0.4.0
 _ZN9FListView18setColumnAlignmentEiN2fc14text_alignmentE@Base 0.4.0
 _ZN9FListView19setRelativePositionEi@Base 0.4.0
 _ZN9FListView22recalculateVerticalBarEi@Base 0.4.0
 _ZN9FListView24recalculateHorizontalBarEi@Base 0.4.0
 _ZN9FListView4drawEv@Base 0.4.0
 _ZN9FListView4initEv@Base 0.4.0
 _ZN9FListView6insertEP13FListViewItemSt14_List_iteratorIP7FObjectE@Base 0.4.0
 _ZN9FListView6insertERKSt6vectorI7FStringSaIS1_EEPvSt14_List_iteratorIP7FObjectE@Base 0.4.0
 _ZN9FListView6insertERKSt6vectorIlSaIlEEPvSt14_List_iteratorIP7FObjectE@Base 0.4.0
 _ZN9FListView7onTimerEP11FTimerEvent@Base 0.4.0
 _ZN9FListView7onWheelEP11FWheelEvent@Base 0.4.0
 _ZN9FListView8drawListEv@Base 0.4.0
 _ZN9FListView8getCountEv@Base 0.4.0
 _ZN9FListView8scrollToEii@Base 0.4.0
 _ZN9FListView9addColumnERK7FStringi@Base 0.4.0
 _ZN9FListView9onFocusInEP11FFocusEvent@Base 0.4.0
 _ZN9FListView9onMouseUpEP11FMouseEvent@Base 0.4.0
 _ZN9FListView9scrollToXEi@Base 0.4.0
 _ZN9FListView9scrollToYEi@Base 0.4.0
 _ZN9FListViewC1EP7FWidget@Base 0.4.0
 _ZN9FListViewC2EP7FWidget@Base 0.4.0
 _ZN9FListViewD0Ev@Base 0.4.0
 _ZN9FListViewD1Ev@Base 0.4.0
 _ZN9FListViewD2Ev@Base 0.4.0
 _ZN9FMenuItem10onFocusOutEP11FFocusEvent@Base 0.4.0
 _ZN9FMenuItem10onKeyPressEP9FKeyEvent@Base 0.4.0
 _ZN9FMenuItem10unsetFocusEv@Base 0.4.0
 _ZN9FMenuItem11onMouseDownEP11FMouseEvent@Base 0.4.0
 _ZN9FMenuItem11onMouseMoveEP11FMouseEvent@Base 0.4.0
 _ZN9FMenuItem11setSelectedEv@Base 0.4.0
 _ZN9FMenuItem13unsetSelectedEv@Base 0.4.0
 _ZN9FMenuItem14addAcceleratorEiP7FWidget@Base 0.4.0
 _ZN9FMenuItem14delAcceleratorEP7FWidget@Base 0.4.0
 _ZN9FMenuItem14processClickedEv@Base 0.4.0
 _ZN9FMenuItem15processActivateEv@Base 0.4.0
 _ZN9FMenuItem16cb_destroyDialogEP7FWidgetPv@Base 0.4.0
 _ZN9FMenuItem16createDialogListEP5FMenu@Base 0.4.0
 _ZN9FMenuItem17cb_switchToDialogEP7FWidgetPv@Base 0.4.0
 _ZN9FMenuItem17processDeactivateEv@Base 0.4.0
 _ZN9FMenuItem18onMouseDoubleClickEP11FMouseEvent@Base 0.4.0
 _ZN9FMenuItem4initEP7FWidget@Base 0.4.0
 _ZN9FMenuItem6hotKeyEv@Base 0.4.0
 _ZN9FMenuItem7onAccelEP11FAccelEvent@Base 0.4.0
 _ZN9FMenuItem7setTextERK7FString@Base 0.4.0
 _ZN9FMenuItem8openMenuEv@Base 0.4.0
 _ZN9FMenuItem8setFocusEb@Base 0.4.0
 _ZN9FMenuItem8setFocusEv@Base 0.4.0
 _ZN9FMenuItem9onFocusInEP11FFocusEvent@Base 0.4.0
 _ZN9FMenuItem9onMouseUpEP11FMouseEvent@Base 0.4.0
 _ZN9FMenuItem9setEnableEb@Base 0.4.0
 _ZN9FMenuItemC1EP7FWidget@Base 0.4.0
 _ZN9FMenuItemC1ERK7FStringP7FWidget@Base 0.4.0
 _ZN9FMenuItemC1EiRK7FStringP7FWidget@Base 0.4.0
 _ZN9FMenuItemC2EP7FWidget@Base 0.4.0
 _ZN9FMenuItemC2ERK7FStringP7FWidget@Base 0.4.0
 _ZN9FMenuItemC2EiRK7FStringP7FWidget@Base 0.4.0
 _ZN9FMenuItemD0Ev@Base 0.4.0
 _ZN9FMenuItemD1Ev@Base 0.4.0
 _ZN9FMenuItemD2Ev@Base 0.4.0
 _ZN9FMenuList12unselectItemEv@Base 0.4.0
 _ZN9FMenuList15selectFirstItemEv@Base 0.4.0
 _ZN9FMenuList5clearEv@Base 0.4.0
 _ZN9FMenuList6insertEP9FMenuItem@Base 0.4.0
 _ZN9FMenuList6removeEP9FMenuItem@Base 0.4.0
 _ZN9FMenuList6removeEi@Base 0.4.0
 _ZN9FMenuListC1Ev@Base 0.4.0
 _ZN9FMenuListC2Ev@Base 0.4.0
 _ZN9FMenuListD0Ev@Base 0.4.0
 _ZN9FMenuListD1Ev@Base 0.4.0
 _ZN9FMenuListD2Ev@Base 0.4.0
 _ZN9FOptiAttr12change_colorERPNS_9char_dataES2_@Base 0.4.0
 _ZN9FOptiAttr12hasAttributeERPNS_9char_dataE@Base 0.4.0
 _ZN9FOptiAttr13set_orig_pairERPc@Base 0.4.0
 _ZN9FOptiAttr14hasNoAttributeERPNS_9char_dataE@Base 0.4.0
 _ZN9FOptiAttr15changeAttributeERPNS_9char_dataES2_@Base 0.4.0
 _ZN9FOptiAttr17setTermAttributesERPNS_9char_dataEbbbbbbbbb@Base 0.4.0
 _ZN9FOptiAttr17set_exit_dim_modeERPc@Base 0.4.0
 _ZN9FOptiAttr18set_enter_dim_modeERPc@Base 0.4.0
 _ZN9FOptiAttr18set_exit_bold_modeERPc@Base 0.4.0
 _ZN9FOptiAttr18set_set_attributesERPc@Base 0.4.0
 _ZN9FOptiAttr19setTermDefaultColorERPNS_9char_dataE@Base 0.4.0
 _ZN9FOptiAttr19set_enter_bold_modeERPc@Base 0.4.0
 _ZN9FOptiAttr19set_exit_blink_modeERPc@Base 0.4.0
 _ZN9FOptiAttr19set_term_color_pairERPc@Base 0.4.0
 _ZN9FOptiAttr20set_background_colorERPc@Base 0.4.0
 _ZN9FOptiAttr20set_enter_blink_modeERPc@Base 0.4.0
 _ZN9FOptiAttr20set_exit_secure_modeERPc@Base 0.4.0
 _ZN9FOptiAttr20set_foreground_colorERPc@Base 0.4.0
 _ZN9FOptiAttr20set_orig_orig_colorsERPc@Base 0.4.0
 _ZN9FOptiAttr21set_enter_secure_modeERPc@Base 0.4.0
 _ZN9FOptiAttr21set_exit_italics_modeERPc@Base 0.4.0
 _ZN9FOptiAttr21set_exit_reverse_modeERPc@Base 0.4.0
 _ZN9FOptiAttr22set_a_background_colorERPc@Base 0.4.0
 _ZN9FOptiAttr22set_a_foreground_colorERPc@Base 0.4.0
 _ZN9FOptiAttr22set_enter_italics_modeERPc@Base 0.4.0
 _ZN9FOptiAttr22set_enter_reverse_modeERPc@Base 0.4.0
 _ZN9FOptiAttr22set_exit_standout_modeERPc@Base 0.4.0
 _ZN9FOptiAttr23caused_reset_attributesERPch@Base 0.4.0
 _ZN9FOptiAttr23set_enter_standout_modeERPc@Base 0.4.0
 _ZN9FOptiAttr23set_exit_attribute_modeERPc@Base 0.4.0
 _ZN9FOptiAttr23set_exit_protected_modeERPc@Base 0.4.0
 _ZN9FOptiAttr23set_exit_underline_modeERPc@Base 0.4.0
 _ZN9FOptiAttr24set_enter_protected_modeERPc@Base 0.4.0
 _ZN9FOptiAttr24set_enter_underline_modeERPc@Base 0.4.0
 _ZN9FOptiAttr24set_exit_pc_charset_modeERPc@Base 0.4.0
 _ZN9FOptiAttr25set_enter_pc_charset_modeERPc@Base 0.4.0
 _ZN9FOptiAttr25set_exit_alt_charset_modeERPc@Base 0.4.0
 _ZN9FOptiAttr25set_exit_crossed_out_modeERPc@Base 0.4.0
 _ZN9FOptiAttr26set_enter_alt_charset_modeERPc@Base 0.4.0
 _ZN9FOptiAttr26set_enter_crossed_out_modeERPc@Base 0.4.0
 _ZN9FOptiAttr27set_exit_dbl_underline_modeERPc@Base 0.4.0
 _ZN9FOptiAttr28set_enter_dbl_underline_modeERPc@Base 0.4.0
 _ZN9FOptiAttr4initEv@Base 0.4.0
 _ZN9FOptiAttr8hasColorERPNS_9char_dataE@Base 0.4.0
 _ZN9FOptiAttr8isNormalERPNS_9char_dataE@Base 0.4.0
 _ZN9FOptiAttr8vga2ansiEs@Base 0.4.0
 _ZN9FOptiAttrC1Ev@Base 0.4.0
 _ZN9FOptiAttrC2Ev@Base 0.4.0
 _ZN9FOptiAttrD1Ev@Base 0.4.0
 _ZN9FOptiAttrD2Ev@Base 0.4.0
 _ZN9FOptiMove10moveCursorEiiii@Base 0.4.0
 _ZN9FOptiMove10setTabStopEi@Base 0.4.0
 _ZN9FOptiMove11capDurationERPci@Base 0.4.0
 _ZN9FOptiMove11setBaudRateEi@Base 0.4.0
 _ZN9FOptiMove11setTermSizeEii@Base 0.4.0
 _ZN9FOptiMove11set_clr_bolERPc@Base 0.4.0
 _ZN9FOptiMove11set_clr_eolERPc@Base 0.4.0
 _ZN9FOptiMove11set_tabularERPc@Base 0.4.0
 _ZN9FOptiMove12relativeMoveERPciiii@Base 0.4.0
 _ZN9FOptiMove12set_back_tabERPc@Base 0.4.0
 _ZN9FOptiMove13set_cursor_upERPc@Base 0.4.0
 _ZN9FOptiMove14printDurationsEv@Base 0.4.0
 _ZN9FOptiMove14repeatedAppendERKNS_10capabilityEiPc@Base 0.4.0
 _ZN9FOptiMove15set_cursor_downERPc@Base 0.4.0
 _ZN9FOptiMove15set_cursor_homeERPc@Base 0.4.0
 _ZN9FOptiMove15set_cursor_leftERPc@Base 0.4.0
 _ZN9FOptiMove15set_erase_charsERPc@Base 0.4.0
 _ZN9FOptiMove15set_repeat_charERPc@Base 0.4.0
 _ZN9FOptiMove15set_row_addressERPc@Base 0.4.0
 _ZN9FOptiMove16set_cursor_rightERPc@Base 0.4.0
 _ZN9FOptiMove16set_cursor_to_llERPc@Base 0.4.0
 _ZN9FOptiMove18set_column_addressERPc@Base 0.4.0
 _ZN9FOptiMove18set_cursor_addressERPc@Base 0.4.0
 _ZN9FOptiMove18set_parm_up_cursorERPc@Base 0.4.0
 _ZN9FOptiMove19capDurationToLengthEi@Base 0.4.0
 _ZN9FOptiMove19set_carriage_returnERPc@Base 0.4.0
 _ZN9FOptiMove20set_parm_down_cursorERPc@Base 0.4.0
 _ZN9FOptiMove20set_parm_left_cursorERPc@Base 0.4.0
 _ZN9FOptiMove21calculateCharDurationEv@Base 0.4.0
 _ZN9FOptiMove21set_parm_right_cursorERPc@Base 0.4.0
 _ZN9FOptiMoveC1Ei@Base 0.4.0
 _ZN9FOptiMoveC2Ei@Base 0.4.0
 _ZN9FOptiMoveD1Ev@Base 0.4.0
 _ZN9FOptiMoveD2Ev@Base 0.4.0
 _ZN9FTextView10adjustSizeEv@Base 0.4.0
 _ZN9FTextView10onFocusOutEP11FFocusEvent@Base 0.4.0
 _ZN9FTextView10onKeyPressEP9FKeyEvent@Base 0.4.0
 _ZN9FTextView11onMouseDownEP11FMouseEvent@Base 0.4.0
 _ZN9FTextView11onMouseMoveEP11FMouseEvent@Base 0.4.0
 _ZN9FTextView11setGeometryEiiiib@Base 0.4.0
 _ZN9FTextView11setPositionEi@Base 0.4.0
 _ZN9FTextView12replaceRangeERK7FStringii@Base 0.4.0
 _ZN9FTextView13cb_HBarChangeEP7FWidgetPv@Base 0.4.0
 _ZN9FTextView13cb_VBarChangeEP7FWidgetPv@Base 0.4.0
 _ZN9FTextView14processChangedEv@Base 0.4.0
 _ZN9FTextView4drawEv@Base 0.4.0
 _ZN9FTextView4hideEv@Base 0.4.0
 _ZN9FTextView4initEv@Base 0.4.0
 _ZN9FTextView5clearEv@Base 0.4.0
 _ZN9FTextView6appendERK7FString@Base 0.4.0
 _ZN9FTextView6insertERK7FStringi@Base 0.4.0
 _ZN9FTextView7onWheelEP11FWheelEvent@Base 0.4.0
 _ZN9FTextView7setTextERK7FString@Base 0.4.0
 _ZN9FTextView8drawTextEv@Base 0.4.0
 _ZN9FTextView9onFocusInEP11FFocusEvent@Base 0.4.0
 _ZN9FTextView9onMouseUpEP11FMouseEvent@Base 0.4.0
 _ZN9FTextViewC1EP7FWidget@Base 0.4.0
 _ZN9FTextViewC2EP7FWidget@Base 0.4.0
 _ZN9FTextViewD0Ev@Base 0.4.0
 _ZN9FTextViewD1Ev@Base 0.4.0
 _ZN9FTextViewD2Ev@Base 0.4.0
 _ZNK10FScrollbar12getClassNameEv@Base 0.4.0
 _ZNK10FStatusBar12getClassNameEv@Base 0.4.0
 _ZNK10FStatusKey12getClassNameEv@Base 0.4.0
 _ZNK10FStatusKey6getKeyEv@Base 0.4.0
 _ZNK10FStatusKey7getTextEv@Base 0.4.0
 _ZNK11FAccelEvent10isAcceptedEv@Base 0.4.0
 _ZNK11FAccelEvent13focusedWidgetEv@Base 0.4.0
 _ZNK11FCloseEvent10isAcceptedEv@Base 0.4.0
 _ZNK11FFileDialog12getClassNameEv@Base 0.4.0
 _ZNK11FFileDialog15getSelectedFileEv@Base 0.4.0
 _ZNK11FFocusEvent10isAcceptedEv@Base 0.4.0
 _ZNK11FFocusEvent12getFocusTypeEv@Base 0.4.0
 _ZNK11FFocusEvent8gotFocusEv@Base 0.4.0
 _ZNK11FFocusEvent9lostFocusEv@Base 0.4.0
 _ZNK11FMessageBox12getClassNameEv@Base 0.4.0
 _ZNK11FMouseEvent10getTermPosEv@Base 0.4.0
 _ZNK11FMouseEvent4getXEv@Base 0.4.0
 _ZNK11FMouseEvent4getYEv@Base 0.4.0
 _ZNK11FMouseEvent6getPosEv@Base 0.4.0
 _ZNK11FMouseEvent8getTermXEv@Base 0.4.0
 _ZNK11FMouseEvent8getTermYEv@Base 0.4.0
 _ZNK11FMouseEvent9getButtonEv@Base 0.4.0
 _ZNK11FScrollView12getClassNameEv@Base 0.4.0
 _ZNK11FTermBuffer12getClassNameEv@Base 0.4.0
 _ZNK11FTimerEvent7timerIdEv@Base 0.4.0
 _ZNK11FWheelEvent10getTermPosEv@Base 0.4.0
 _ZNK11FWheelEvent4getXEv@Base 0.4.0
 _ZNK11FWheelEvent4getYEv@Base 0.4.0
 _ZNK11FWheelEvent6getPosEv@Base 0.4.0
 _ZNK11FWheelEvent8getTermXEv@Base 0.4.0
 _ZNK11FWheelEvent8getTermYEv@Base 0.4.0
 _ZNK11FWheelEvent8getWheelEv@Base 0.4.0
 _ZNK12FApplication12getClassNameEv@Base 0.4.0
 _ZNK12FApplication14getFocusWidgetEv@Base 0.4.0
 _ZNK12FButtonGroup12getClassNameEv@Base 0.4.0
 _ZNK12FButtonGroup13isRadioButtonEP13FToggleButton@Base 0.4.0
 _ZNK12FButtonGroup16hasCheckedButtonEv@Base 0.4.0
 _ZNK12FButtonGroup16hasFocusedButtonEv@Base 0.4.0
 _ZNK12FButtonGroup9getButtonEi@Base 0.4.0
 _ZNK12FButtonGroup9isCheckedEi@Base 0.4.0
 _ZNK12FListBoxItem7getDataEv@Base 0.4.0
 _ZNK12FProgressbar12getClassNameEv@Base 0.4.0
 _ZNK12FRadioButton12getClassNameEv@Base 0.4.0
 _ZNK12FResizeEvent10isAcceptedEv@Base 0.4.0
 _ZNK13FListViewItem12getClassNameEv@Base 0.4.0
 _ZNK13FListViewItem7getTextEi@Base 0.4.0
 _ZNK13FListViewItem8getDepthEv@Base 0.4.0
 _ZNK13FToggleButton12getClassNameEv@Base 0.4.0
 _ZNK13FToggleButton13isRadioButtonEv@Base 0.4.0
 _ZNK13FToggleButton16isCheckboxButtonEv@Base 0.4.0
 _ZNK14FCheckMenuItem12getClassNameEv@Base 0.4.0
 _ZNK14FRadioMenuItem12getClassNameEv@Base 0.4.0
 _ZNK15FDialogListMenu12getClassNameEv@Base 0.4.0
 _ZNK5FMenu12getClassNameEv@Base 0.4.0
 _ZNK5FMenu13isWindowsMenuEP7FWidget@Base 0.4.0
 _ZNK5FMenu15isRadioMenuItemEP7FWidget@Base 0.4.0
 _ZNK5FMenu6isMenuEP7FWidget@Base 0.4.0
 _ZNK5FMenu9isMenuBarEP7FWidget@Base 0.4.0
 _ZNK5FMenu9isSubMenuEv@Base 0.4.0
 _ZNK5FRect6isNullEv@Base 0.4.0
 _ZNK5FRect7overlapERKS_@Base 0.4.0
 _ZNK5FRect8combinedERKS_@Base 0.4.0
 _ZNK5FRect8containsERK6FPoint@Base 0.4.0
 _ZNK5FRect8containsERKS_@Base 0.4.0
 _ZNK5FRect8containsEii@Base 0.4.0
 _ZNK5FRect9intersectERKS_@Base 0.4.0
 _ZNK5FTerm12getClassNameEv@Base 0.4.0
 _ZNK6FEvent4typeEv@Base 0.4.0
 _ZNK6FLabel12getClassNameEv@Base 0.4.0
 _ZNK6FPoint6isNullEv@Base 0.4.0
 _ZNK6FVTerm12getClassNameEv@Base 0.4.0
 _ZNK7FButton12getClassNameEv@Base 0.4.0
 _ZNK7FDialog12getClassNameEv@Base 0.4.0
 _ZNK7FObject12getClassNameEv@Base 0.4.0
 _ZNK7FObject7isChildEPS_@Base 0.4.0
 _ZNK7FObject8getChildEi@Base 0.4.0
 _ZNK7FString10expandTabsEi@Base 0.4.0
 _ZNK7FString11c_to_wc_strEPKc@Base 0.4.0
 _ZNK7FString13getUTF8lengthEv@Base 0.4.0
 _ZNK7FString16removeBackspacesEv@Base 0.4.0
 _ZNK7FString19replaceControlCodesEv@Base 0.4.0
 _ZNK7FString3midEii@Base 0.4.0
 _ZNK7FString3midEjj@Base 0.4.0
 _ZNK7FString4leftEi@Base 0.4.0
 _ZNK7FString4leftEj@Base 0.4.0
 _ZNK7FString4trimEv@Base 0.4.0
 _ZNK7FString5c_strEv@Base 0.4.0
 _ZNK7FString5ltrimEv@Base 0.4.0
 _ZNK7FString5rightEi@Base 0.4.0
 _ZNK7FString5rightEj@Base 0.4.0
 _ZNK7FString5rtrimEv@Base 0.4.0
 _ZNK7FString5toIntEv@Base 0.4.0
 _ZNK7FString6toLongEv@Base 0.4.0
 _ZNK7FString6toUIntEv@Base 0.4.0
 _ZNK7FString6wc_strEv@Base 0.4.0
 _ZNK7FString7toFloatEv@Base 0.4.0
 _ZNK7FString7toLowerEv@Base 0.4.0
 _ZNK7FString7toShortEv@Base 0.4.0
 _ZNK7FString7toULongEv@Base 0.4.0
 _ZNK7FString7toUpperEv@Base 0.4.0
 _ZNK7FString8toDoubleEv@Base 0.4.0
 _ZNK7FString8toStringEv@Base 0.4.0
 _ZNK7FString8toUShortEv@Base 0.4.0
 _ZNK7FString9removeDelEv@Base 0.4.0
 _ZNK7FStringeqEPKc@Base 0.4.0
 _ZNK7FStringeqEPKw@Base 0.4.0
 _ZNK7FStringeqERKS_@Base 0.4.0
 _ZNK7FStringeqERKSbIwSt11char_traitsIwESaIwEE@Base 0.4.0
 _ZNK7FStringeqERKSs@Base 0.4.0
 _ZNK7FStringeqEc@Base 0.4.0
 _ZNK7FStringeqEw@Base 0.4.0
 _ZNK7FStringgeEPKc@Base 0.4.0
 _ZNK7FStringgeEPKw@Base 0.4.0
 _ZNK7FStringgeERKS_@Base 0.4.0
 _ZNK7FStringgeERKSbIwSt11char_traitsIwESaIwEE@Base 0.4.0
 _ZNK7FStringgeERKSs@Base 0.4.0
 _ZNK7FStringgeEc@Base 0.4.0
 _ZNK7FStringgeEw@Base 0.4.0
 _ZNK7FStringgtEPKc@Base 0.4.0
 _ZNK7FStringgtEPKw@Base 0.4.0
 _ZNK7FStringgtERKS_@Base 0.4.0
 _ZNK7FStringgtERKSbIwSt11char_traitsIwESaIwEE@Base 0.4.0
 _ZNK7FStringgtERKSs@Base 0.4.0
 _ZNK7FStringgtEc@Base 0.4.0
 _ZNK7FStringgtEw@Base 0.4.0
 _ZNK7FStringleEPKc@Base 0.4.0
 _ZNK7FStringleEPKw@Base 0.4.0
 _ZNK7FStringleERKS_@Base 0.4.0
 _ZNK7FStringleERKSbIwSt11char_traitsIwESaIwEE@Base 0.4.0
 _ZNK7FStringleERKSs@Base 0.4.0
 _ZNK7FStringleEc@Base 0.4.0
 _ZNK7FStringleEw@Base 0.4.0
 _ZNK7FStringltEPKc@Base 0.4.0
 _ZNK7FStringltEPKw@Base 0.4.0
 _ZNK7FStringltERKS_@Base 0.4.0
 _ZNK7FStringltERKSbIwSt11char_traitsIwESaIwEE@Base 0.4.0
 _ZNK7FStringltERKSs@Base 0.4.0
 _ZNK7FStringltEc@Base 0.4.0
 _ZNK7FStringltEw@Base 0.4.0
 _ZNK7FStringneEPKc@Base 0.4.0
 _ZNK7FStringneEPKw@Base 0.4.0
 _ZNK7FStringneERKS_@Base 0.4.0
 _ZNK7FStringneERKSbIwSt11char_traitsIwESaIwEE@Base 0.4.0
 _ZNK7FStringneERKSs@Base 0.4.0
 _ZNK7FStringneEc@Base 0.4.0
 _ZNK7FStringneEw@Base 0.4.0
 _ZNK7FSwitch12getClassNameEv@Base 0.4.0
 _ZNK7FWidget12getClassNameEv@Base 0.4.0
 _ZNK7FWidget13getRootWidgetEv@Base 0.4.0
 _ZNK7FWidget14getFocusWidgetEv@Base 0.4.0
 _ZNK7FWidget15getParentWidgetEv@Base 0.4.0
 _ZNK7FWidget16isChildPrintAreaEv@Base 0.4.0
 _ZNK7FWindow12getClassNameEv@Base 0.4.0
 _ZNK7FWindow14isWindowHiddenEv@Base 0.4.0
 _ZNK7FWindow20getWindowFocusWidgetEv@Base 0.4.0
 _ZNK8FListBox12getClassNameEv@Base 0.4.0
 _ZNK8FMenuBar12getClassNameEv@Base 0.4.0
 _ZNK8FToolTip12getClassNameEv@Base 0.4.0
 _ZNK9FCheckBox12getClassNameEv@Base 0.4.0
 _ZNK9FKeyEvent10isAcceptedEv@Base 0.4.0
 _ZNK9FKeyEvent3keyEv@Base 0.4.0
 _ZNK9FLineEdit12getClassNameEv@Base 0.4.0
 _ZNK9FListView12getClassNameEv@Base 0.4.0
 _ZNK9FListView13getColumnTextEi@Base 0.4.0
 _ZNK9FListView18getColumnAlignmentEi@Base 0.4.0
 _ZNK9FMenuItem12getClassNameEv@Base 0.4.0
 _ZNK9FMenuItem13isWindowsMenuEP7FWidget@Base 0.4.0
 _ZNK9FMenuItem6isMenuEP7FWidget@Base 0.4.0
 _ZNK9FMenuItem9isMenuBarEP7FWidget@Base 0.4.0
 _ZNK9FMenuList12getClassNameEv@Base 0.4.0
 _ZNK9FTextView12getClassNameEv@Base 0.4.0
 _ZNK9FTextView7getTextEv@Base 0.4.0
 _ZNKSt5ctypeIcE8do_widenEc@Base 0.4.0
 _ZNSbIwSt11char_traitsIwESaIwEE12_S_constructIPwEES4_T_S5_RKS1_St20forward_iterator_tag@Base 0.4.0
 _ZNSt11_Deque_baseISt14_List_iteratorIP7FObjectESaIS3_EE17_M_initialize_mapEm@Base 0.4.0
 _ZNSt11_Deque_baseISt14_List_iteratorIP7FObjectESaIS3_EED1Ev@Base 0.4.0
 _ZNSt11_Deque_baseISt14_List_iteratorIP7FObjectESaIS3_EED2Ev@Base 0.4.0
 _ZNSt11_Deque_baseIiSaIiEE17_M_initialize_mapEm@Base 0.4.0
 _ZNSt11_Deque_baseIiSaIiEED1Ev@Base 0.4.0
 _ZNSt11_Deque_baseIiSaIiEED2Ev@Base 0.4.0
 _ZNSt15basic_stringbufIwSt11char_traitsIwESaIwEED0Ev@Base 0.4.0
 _ZNSt15basic_stringbufIwSt11char_traitsIwESaIwEED1Ev@Base 0.4.0
 _ZNSt15basic_stringbufIwSt11char_traitsIwESaIwEED2Ev@Base 0.4.0
 _ZNSt5dequeISt14_List_iteratorIP7FObjectESaIS3_EE13_M_insert_auxISt15_Deque_iteratorIS3_RKS3_PS8_EEEvS7_IS3_RS3_PS3_ET_SF_m@Base 0.4.0
 _ZNSt5dequeISt14_List_iteratorIP7FObjectESaIS3_EE15_M_pop_back_auxEv@Base 0.4.0
 _ZNSt5dequeISt14_List_iteratorIP7FObjectESaIS3_EE16_M_push_back_auxERKS3_@Base 0.4.0
 _ZNSt5dequeISt14_List_iteratorIP7FObjectESaIS3_EE17_M_reallocate_mapEmb@Base 0.4.0
 _ZNSt5dequeISt14_List_iteratorIP7FObjectESaIS3_EE23_M_new_elements_at_backEm@Base 0.4.0
 _ZNSt5dequeISt14_List_iteratorIP7FObjectESaIS3_EE24_M_new_elements_at_frontEm@Base 0.4.0
 _ZNSt5dequeISt14_List_iteratorIP7FObjectESaIS3_EEaSERKS5_@Base 0.4.0
 _ZNSt5dequeISt4pairIPK7FObjectPK6FEventESaIS7_EE16_M_pop_front_auxEv@Base 0.4.0
 _ZNSt5dequeISt4pairIPK7FObjectPK6FEventESaIS7_EE8_M_eraseESt15_Deque_iteratorIS7_RS7_PS7_E@Base 0.4.0
 _ZNSt6vectorI12FListBoxItemSaIS0_EE13_M_insert_auxEN9__gnu_cxx17__normal_iteratorIPS0_S2_EERKS0_@Base 0.4.0
 _ZNSt6vectorI12FListBoxItemSaIS0_EED1Ev@Base 0.4.0
 _ZNSt6vectorI12FListBoxItemSaIS0_EED2Ev@Base 0.4.0
 _ZNSt6vectorI7FStringSaIS0_EE13_M_insert_auxEN9__gnu_cxx17__normal_iteratorIPS0_S2_EERKS0_@Base 0.4.0
 _ZNSt6vectorI7FStringSaIS0_EE15_M_range_insertIN9__gnu_cxx17__normal_iteratorIPS0_S2_EEEEvS7_T_S8_St20forward_iterator_tag@Base 0.4.0
 _ZNSt6vectorI7FStringSaIS0_EED1Ev@Base 0.4.0
 _ZNSt6vectorI7FStringSaIS0_EED2Ev@Base 0.4.0
 _ZNSt6vectorI7FStringSaIS0_EEaSERKS2_@Base 0.4.0
 _ZNSt6vectorIN11FFileDialog9dir_entryESaIS1_EE13_M_insert_auxEN9__gnu_cxx17__normal_iteratorIPS1_S3_EERKS1_@Base 0.4.0
 _ZNSt6vectorIN6FVTerm19vterm_preprocessingESaIS1_EE13_M_insert_auxEN9__gnu_cxx17__normal_iteratorIPS1_S3_EERKS1_@Base 0.4.0
 _ZNSt6vectorIN7FObject10timer_dataESaIS1_EE13_M_insert_auxEN9__gnu_cxx17__normal_iteratorIPS1_S3_EERKS1_@Base 0.4.0
 _ZNSt6vectorIN7FObject10timer_dataESaIS1_EE8_M_eraseEN9__gnu_cxx17__normal_iteratorIPS1_S3_EE@Base 0.4.0
 _ZNSt6vectorIN7FWidget11acceleratorESaIS1_EE13_M_insert_auxEN9__gnu_cxx17__normal_iteratorIPS1_S3_EERKS1_@Base 0.4.0
 _ZNSt6vectorIN7FWidget13callback_dataESaIS1_EE13_M_insert_auxEN9__gnu_cxx17__normal_iteratorIPS1_S3_EERKS1_@Base 0.4.0
 _ZNSt6vectorIN7FWidget13callback_dataESaIS1_EED1Ev@Base 0.4.0
 _ZNSt6vectorIN7FWidget13callback_dataESaIS1_EED2Ev@Base 0.4.0
 _ZNSt6vectorIN7FWidget20member_callback_dataESaIS1_EE13_M_insert_auxEN9__gnu_cxx17__normal_iteratorIPS1_S3_EERKS1_@Base 0.4.0
 _ZNSt6vectorIN7FWidget20member_callback_dataESaIS1_EED1Ev@Base 0.4.0
 _ZNSt6vectorIN7FWidget20member_callback_dataESaIS1_EED2Ev@Base 0.4.0
 _ZNSt6vectorIN9FListView6HeaderESaIS1_EE13_M_insert_auxEN9__gnu_cxx17__normal_iteratorIPS1_S3_EERKS1_@Base 0.4.0
 _ZNSt6vectorIN9FListView6HeaderESaIS1_EED1Ev@Base 0.4.0
 _ZNSt6vectorIN9FListView6HeaderESaIS1_EED2Ev@Base 0.4.0
 _ZNSt6vectorIN9FOptiAttr9char_dataESaIS1_EE13_M_insert_auxEN9__gnu_cxx17__normal_iteratorIPS1_S3_EERKS1_@Base 0.4.0
 _ZNSt6vectorIP10FStatusKeySaIS1_EE13_M_insert_auxEN9__gnu_cxx17__normal_iteratorIPS1_S3_EERKS1_@Base 0.4.0
 _ZNSt6vectorIP10FStatusKeySaIS1_EE8_M_eraseEN9__gnu_cxx17__normal_iteratorIPS1_S3_EE@Base 0.4.0
 _ZNSt6vectorIP7FWidgetSaIS1_EE13_M_insert_auxEN9__gnu_cxx17__normal_iteratorIPS1_S3_EERKS1_@Base 0.4.0
 _ZNSt6vectorIP7FWidgetSaIS1_EE8_M_eraseEN9__gnu_cxx17__normal_iteratorIPS1_S3_EE@Base 0.4.0
 _ZNSt6vectorIP9FMenuItemSaIS1_EE13_M_insert_auxEN9__gnu_cxx17__normal_iteratorIPS1_S3_EERKS1_@Base 0.4.0
 _ZNSt6vectorIP9FMenuItemSaIS1_EE8_M_eraseEN9__gnu_cxx17__normal_iteratorIPS1_S3_EE@Base 0.4.0
 _ZNSt6vectorIbSaIbEE14_M_fill_insertESt13_Bit_iteratormb@Base 0.4.0
 _ZNSt8_Rb_treeISsSt4pairIKSsN2fc8encodingEESt10_Select1stIS4_ESt4lessISsESaIS4_EE17_M_insert_unique_ESt23_Rb_tree_const_iteratorIS4_ERKS4_@Base 0.4.0
 _ZNSt8_Rb_treeISsSt4pairIKSsN2fc8encodingEESt10_Select1stIS4_ESt4lessISsESaIS4_EE24_M_get_insert_unique_posERS1_@Base 0.4.0
 _ZNSt8_Rb_treeISsSt4pairIKSsN2fc8encodingEESt10_Select1stIS4_ESt4lessISsESaIS4_EE29_M_get_insert_hint_unique_posESt23_Rb_tree_const_iteratorIS4_ERS1_@Base 0.4.0
 _ZNSt8_Rb_treeISsSt4pairIKSsN2fc8encodingEESt10_Select1stIS4_ESt4lessISsESaIS4_EE8_M_eraseEPSt13_Rb_tree_nodeIS4_E@Base 0.4.0
 _ZNSt8_Rb_treeIhSt4pairIKhhESt10_Select1stIS2_ESt4lessIhESaIS2_EE24_M_get_insert_unique_posERS1_@Base 0.4.0
 _ZNSt8_Rb_treeIhSt4pairIKhhESt10_Select1stIS2_ESt4lessIhESaIS2_EE29_M_get_insert_hint_unique_posESt23_Rb_tree_const_iteratorIS2_ERS1_@Base 0.4.0
 _ZNSt8_Rb_treeIhSt4pairIKhhESt10_Select1stIS2_ESt4lessIhESaIS2_EE8_M_eraseEPSt13_Rb_tree_nodeIS2_E@Base 0.4.0
 _ZNSt8_Rb_treeIjSt4pairIKjjESt10_Select1stIS2_ESt4lessIjESaIS2_EE24_M_get_insert_unique_posERS1_@Base 0.4.0
 _ZNSt8_Rb_treeIjSt4pairIKjjESt10_Select1stIS2_ESt4lessIjESaIS2_EE29_M_get_insert_hint_unique_posESt23_Rb_tree_const_iteratorIS2_ERS1_@Base 0.4.0
 _ZNSt8_Rb_treeIjSt4pairIKjjESt10_Select1stIS2_ESt4lessIjESaIS2_EE8_M_eraseEPSt13_Rb_tree_nodeIS2_E@Base 0.4.0
 _ZSt13__adjust_heapIN9__gnu_cxx17__normal_iteratorIPN11FFileDialog9dir_entryESt6vectorIS3_SaIS3_EEEElS3_NS0_5__ops15_Iter_comp_iterIPFbRKS3_SC_EEEEvT_T0_SH_T1_T2_@Base 0.4.0
 _ZSt16__insertion_sortIN9__gnu_cxx17__normal_iteratorIPN11FFileDialog9dir_entryESt6vectorIS3_SaIS3_EEEENS0_5__ops15_Iter_comp_iterIPFbRKS3_SC_EEEEvT_SG_T0_@Base 0.4.0
 _ZSt16__introsort_loopIN9__gnu_cxx17__normal_iteratorIPN11FFileDialog9dir_entryESt6vectorIS3_SaIS3_EEEElNS0_5__ops15_Iter_comp_iterIPFbRKS3_SC_EEEEvT_SG_T0_T1_@Base 0.4.0
 _ZSt25__unguarded_linear_insertIN9__gnu_cxx17__normal_iteratorIPN11FFileDialog9dir_entryESt6vectorIS3_SaIS3_EEEENS0_5__ops14_Val_comp_iterIPFbRKS3_SC_EEEEvT_T0_@Base 0.4.0
 _ZSt4copyISt14_List_iteratorIP7FObjectEESt15_Deque_iteratorIT_RS5_PS5_ES4_IS5_RKS5_PS9_ESC_S8_@Base 0.4.0
 _ZTI10FHideEvent@Base 0.4.0
 _ZTI10FScrollbar@Base 0.4.0
 _ZTI10FShowEvent@Base 0.4.0
 _ZTI10FStatusBar@Base 0.4.0
 _ZTI10FStatusKey@Base 0.4.0
 _ZTI11FAccelEvent@Base 0.4.0
 _ZTI11FCloseEvent@Base 0.4.0
 _ZTI11FFileDialog@Base 0.4.0
 _ZTI11FFocusEvent@Base 0.4.0
 _ZTI11FMessageBox@Base 0.4.0
 _ZTI11FMouseEvent@Base 0.4.0
 _ZTI11FScrollView@Base 0.4.0
 _ZTI11FTermBuffer@Base 0.4.0
 _ZTI11FTimerEvent@Base 0.4.0
 _ZTI11FWheelEvent@Base 0.4.0
 _ZTI12FApplication@Base 0.4.0
 _ZTI12FButtonGroup@Base 0.4.0
 _ZTI12FListBoxItem@Base 0.4.0
 _ZTI12FProgressbar@Base 0.4.0
 _ZTI12FRadioButton@Base 0.4.0
 _ZTI12FResizeEvent@Base 0.4.0
 _ZTI13FListViewItem@Base 0.4.0
 _ZTI13FToggleButton@Base 0.4.0
 _ZTI14FCheckMenuItem@Base 0.4.0
 _ZTI14FRadioMenuItem@Base 0.4.0
 _ZTI15FDialogListMenu@Base 0.4.0
 _ZTI5FMenu@Base 0.4.0
 _ZTI5FRect@Base 0.4.0
 _ZTI5FTerm@Base 0.4.0
 _ZTI6FEvent@Base 0.4.0
 _ZTI6FLabel@Base 0.4.0
 _ZTI6FPoint@Base 0.4.0
 _ZTI6FVTerm@Base 0.4.0
 _ZTI7FButton@Base 0.4.0
 _ZTI7FDialog@Base 0.4.0
 _ZTI7FObject@Base 0.4.0
 _ZTI7FString@Base 0.4.0
 _ZTI7FSwitch@Base 0.4.0
 _ZTI7FWidget@Base 0.4.0
 _ZTI7FWindow@Base 0.4.0
 _ZTI8FListBox@Base 0.4.0
 _ZTI8FMenuBar@Base 0.4.0
 _ZTI8FToolTip@Base 0.4.0
 _ZTI9FCheckBox@Base 0.4.0
 _ZTI9FKeyEvent@Base 0.4.0
 _ZTI9FLineEdit@Base 0.4.0
 _ZTI9FListView@Base 0.4.0
 _ZTI9FMenuItem@Base 0.4.0
 _ZTI9FMenuList@Base 0.4.0
 _ZTI9FTextView@Base 0.4.0
 _ZTS10FHideEvent@Base 0.4.0
 _ZTS10FScrollbar@Base 0.4.0
 _ZTS10FShowEvent@Base 0.4.0
 _ZTS10FStatusBar@Base 0.4.0
 _ZTS10FStatusKey@Base 0.4.0
 _ZTS11FAccelEvent@Base 0.4.0
 _ZTS11FCloseEvent@Base 0.4.0
 _ZTS11FFileDialog@Base 0.4.0
 _ZTS11FFocusEvent@Base 0.4.0
 _ZTS11FMessageBox@Base 0.4.0
 _ZTS11FMouseEvent@Base 0.4.0
 _ZTS11FScrollView@Base 0.4.0
 _ZTS11FTermBuffer@Base 0.4.0
 _ZTS11FTimerEvent@Base 0.4.0
 _ZTS11FWheelEvent@Base 0.4.0
 _ZTS12FApplication@Base 0.4.0
 _ZTS12FButtonGroup@Base 0.4.0
 _ZTS12FListBoxItem@Base 0.4.0
 _ZTS12FProgressbar@Base 0.4.0
 _ZTS12FRadioButton@Base 0.4.0
 _ZTS12FResizeEvent@Base 0.4.0
 _ZTS13FListViewItem@Base 0.4.0
 _ZTS13FToggleButton@Base 0.4.0
 _ZTS14FCheckMenuItem@Base 0.4.0
 _ZTS14FRadioMenuItem@Base 0.4.0
 _ZTS15FDialogListMenu@Base 0.4.0
 _ZTS5FMenu@Base 0.4.0
 _ZTS5FRect@Base 0.4.0
 _ZTS5FTerm@Base 0.4.0
 _ZTS6FEvent@Base 0.4.0
 _ZTS6FLabel@Base 0.4.0
 _ZTS6FPoint@Base 0.4.0
 _ZTS6FVTerm@Base 0.4.0
 _ZTS7FButton@Base 0.4.0
 _ZTS7FDialog@Base 0.4.0
 _ZTS7FObject@Base 0.4.0
 _ZTS7FString@Base 0.4.0
 _ZTS7FSwitch@Base 0.4.0
 _ZTS7FWidget@Base 0.4.0
 _ZTS7FWindow@Base 0.4.0
 _ZTS8FListBox@Base 0.4.0
 _ZTS8FMenuBar@Base 0.4.0
 _ZTS8FToolTip@Base 0.4.0
 _ZTS9FCheckBox@Base 0.4.0
 _ZTS9FKeyEvent@Base 0.4.0
 _ZTS9FLineEdit@Base 0.4.0
 _ZTS9FListView@Base 0.4.0
 _ZTS9FMenuItem@Base 0.4.0
 _ZTS9FMenuList@Base 0.4.0
 _ZTS9FTextView@Base 0.4.0
 _ZTV10FHideEvent@Base 0.4.0
 _ZTV10FScrollbar@Base 0.4.0
 _ZTV10FShowEvent@Base 0.4.0
 _ZTV10FStatusBar@Base 0.4.0
 _ZTV10FStatusKey@Base 0.4.0
 _ZTV11FAccelEvent@Base 0.4.0
 _ZTV11FCloseEvent@Base 0.4.0
 _ZTV11FFileDialog@Base 0.4.0
 _ZTV11FFocusEvent@Base 0.4.0
 _ZTV11FMessageBox@Base 0.4.0
 _ZTV11FMouseEvent@Base 0.4.0
 _ZTV11FScrollView@Base 0.4.0
 _ZTV11FTermBuffer@Base 0.4.0
 _ZTV11FTimerEvent@Base 0.4.0
 _ZTV11FWheelEvent@Base 0.4.0
 _ZTV12FApplication@Base 0.4.0
 _ZTV12FButtonGroup@Base 0.4.0
 _ZTV12FListBoxItem@Base 0.4.0
 _ZTV12FProgressbar@Base 0.4.0
 _ZTV12FRadioButton@Base 0.4.0
 _ZTV12FResizeEvent@Base 0.4.0
 _ZTV13FListViewItem@Base 0.4.0
 _ZTV13FToggleButton@Base 0.4.0
 _ZTV14FCheckMenuItem@Base 0.4.0
 _ZTV14FRadioMenuItem@Base 0.4.0
 _ZTV15FDialogListMenu@Base 0.4.0
 _ZTV5FMenu@Base 0.4.0
 _ZTV5FRect@Base 0.4.0
 _ZTV5FTerm@Base 0.4.0
 _ZTV6FEvent@Base 0.4.0
 _ZTV6FLabel@Base 0.4.0
 _ZTV6FPoint@Base 0.4.0
 _ZTV6FVTerm@Base 0.4.0
 _ZTV7FButton@Base 0.4.0
 _ZTV7FDialog@Base 0.4.0
 _ZTV7FObject@Base 0.4.0
 _ZTV7FString@Base 0.4.0
 _ZTV7FSwitch@Base 0.4.0
 _ZTV7FWidget@Base 0.4.0
 _ZTV7FWindow@Base 0.4.0
 _ZTV8FListBox@Base 0.4.0
 _ZTV8FMenuBar@Base 0.4.0
 _ZTV8FToolTip@Base 0.4.0
 _ZTV9FCheckBox@Base 0.4.0
 _ZTV9FKeyEvent@Base 0.4.0
 _ZTV9FLineEdit@Base 0.4.0
 _ZTV9FListView@Base 0.4.0
 _ZTV9FMenuItem@Base 0.4.0
 _ZTV9FMenuList@Base 0.4.0
 _ZTV9FTextView@Base 0.4.0
 _ZThn571_N15FDialogListMenuD0Ev@Base 0.4.0
 _ZThn571_N15FDialogListMenuD1Ev@Base 0.4.0
 _ZThn571_N5FMenuD0Ev@Base 0.4.0
 _ZThn571_N5FMenuD1Ev@Base 0.4.0
 _ZThn571_N8FMenuBarD0Ev@Base 0.4.0
 _ZThn571_N8FMenuBarD1Ev@Base 0.4.0
 _ZThn571_NK15FDialogListMenu12getClassNameEv@Base 0.4.0
 _ZThn571_NK5FMenu12getClassNameEv@Base 0.4.0
 _ZThn571_NK8FMenuBar12getClassNameEv@Base 0.4.0
 _ZThn80_N10FScrollbar7onTimerEP11FTimerEvent@Base 0.4.0
 _ZThn80_N10FScrollbarD0Ev@Base 0.4.0
 _ZThn80_N10FScrollbarD1Ev@Base 0.4.0
 _ZThn80_N10FStatusBarD0Ev@Base 0.4.0
 _ZThn80_N10FStatusBarD1Ev@Base 0.4.0
 _ZThn80_N10FStatusKeyD0Ev@Base 0.4.0
 _ZThn80_N10FStatusKeyD1Ev@Base 0.4.0
 _ZThn80_N11FFileDialogD0Ev@Base 0.4.0
 _ZThn80_N11FFileDialogD1Ev@Base 0.4.0
 _ZThn80_N11FMessageBoxD0Ev@Base 0.4.0
 _ZThn80_N11FMessageBoxD1Ev@Base 0.4.0
 _ZThn80_N11FScrollViewD0Ev@Base 0.4.0
 _ZThn80_N11FScrollViewD1Ev@Base 0.4.0
 _ZThn80_N12FApplicationD0Ev@Base 0.4.0
 _ZThn80_N12FApplicationD1Ev@Base 0.4.0
 _ZThn80_N12FButtonGroupD0Ev@Base 0.4.0
 _ZThn80_N12FButtonGroupD1Ev@Base 0.4.0
 _ZThn80_N12FProgressbarD0Ev@Base 0.4.0
 _ZThn80_N12FProgressbarD1Ev@Base 0.4.0
 _ZThn80_N12FRadioButtonD0Ev@Base 0.4.0
 _ZThn80_N12FRadioButtonD1Ev@Base 0.4.0
 _ZThn80_N13FToggleButtonD0Ev@Base 0.4.0
 _ZThn80_N13FToggleButtonD1Ev@Base 0.4.0
 _ZThn80_N14FCheckMenuItemD0Ev@Base 0.4.0
 _ZThn80_N14FCheckMenuItemD1Ev@Base 0.4.0
 _ZThn80_N14FRadioMenuItemD0Ev@Base 0.4.0
 _ZThn80_N14FRadioMenuItemD1Ev@Base 0.4.0
 _ZThn80_N15FDialogListMenuD0Ev@Base 0.4.0
 _ZThn80_N15FDialogListMenuD1Ev@Base 0.4.0
 _ZThn80_N5FMenuD0Ev@Base 0.4.0
 _ZThn80_N5FMenuD1Ev@Base 0.4.0
 _ZThn80_N6FLabelD0Ev@Base 0.4.0
 _ZThn80_N6FLabelD1Ev@Base 0.4.0
 _ZThn80_N7FButton7onTimerEP11FTimerEvent@Base 0.4.0
 _ZThn80_N7FButtonD0Ev@Base 0.4.0
 _ZThn80_N7FButtonD1Ev@Base 0.4.0
 _ZThn80_N7FDialogD0Ev@Base 0.4.0
 _ZThn80_N7FDialogD1Ev@Base 0.4.0
 _ZThn80_N7FSwitchD0Ev@Base 0.4.0
 _ZThn80_N7FSwitchD1Ev@Base 0.4.0
 _ZThn80_N7FWidget5eventEP6FEvent@Base 0.4.0
 _ZThn80_N7FWidgetD0Ev@Base 0.4.0
 _ZThn80_N7FWidgetD1Ev@Base 0.4.0
 _ZThn80_N7FWindow5eventEP6FEvent@Base 0.4.0
 _ZThn80_N7FWindowD0Ev@Base 0.4.0
 _ZThn80_N7FWindowD1Ev@Base 0.4.0
 _ZThn80_N8FListBox7onTimerEP11FTimerEvent@Base 0.4.0
 _ZThn80_N8FListBoxD0Ev@Base 0.4.0
 _ZThn80_N8FListBoxD1Ev@Base 0.4.0
 _ZThn80_N8FMenuBarD0Ev@Base 0.4.0
 _ZThn80_N8FMenuBarD1Ev@Base 0.4.0
 _ZThn80_N8FToolTipD0Ev@Base 0.4.0
 _ZThn80_N8FToolTipD1Ev@Base 0.4.0
 _ZThn80_N9FCheckBoxD0Ev@Base 0.4.0
 _ZThn80_N9FCheckBoxD1Ev@Base 0.4.0
 _ZThn80_N9FLineEdit7onTimerEP11FTimerEvent@Base 0.4.0
 _ZThn80_N9FLineEditD0Ev@Base 0.4.0
 _ZThn80_N9FLineEditD1Ev@Base 0.4.0
 _ZThn80_N9FListView7onTimerEP11FTimerEvent@Base 0.4.0
 _ZThn80_N9FListViewD0Ev@Base 0.4.0
 _ZThn80_N9FListViewD1Ev@Base 0.4.0
 _ZThn80_N9FMenuItemD0Ev@Base 0.4.0
 _ZThn80_N9FMenuItemD1Ev@Base 0.4.0
 _ZThn80_N9FTextViewD0Ev@Base 0.4.0
 _ZThn80_N9FTextViewD1Ev@Base 0.4.0
 _ZThn80_NK10FScrollbar12getClassNameEv@Base 0.4.0
 _ZThn80_NK10FStatusBar12getClassNameEv@Base 0.4.0
 _ZThn80_NK10FStatusKey12getClassNameEv@Base 0.4.0
 _ZThn80_NK11FFileDialog12getClassNameEv@Base 0.4.0
 _ZThn80_NK11FMessageBox12getClassNameEv@Base 0.4.0
 _ZThn80_NK11FScrollView12getClassNameEv@Base 0.4.0
 _ZThn80_NK12FApplication12getClassNameEv@Base 0.4.0
 _ZThn80_NK12FButtonGroup12getClassNameEv@Base 0.4.0
 _ZThn80_NK12FProgressbar12getClassNameEv@Base 0.4.0
 _ZThn80_NK12FRadioButton12getClassNameEv@Base 0.4.0
 _ZThn80_NK13FToggleButton12getClassNameEv@Base 0.4.0
 _ZThn80_NK14FCheckMenuItem12getClassNameEv@Base 0.4.0
 _ZThn80_NK14FRadioMenuItem12getClassNameEv@Base 0.4.0
 _ZThn80_NK15FDialogListMenu12getClassNameEv@Base 0.4.0
 _ZThn80_NK5FMenu12getClassNameEv@Base 0.4.0
 _ZThn80_NK6FLabel12getClassNameEv@Base 0.4.0
 _ZThn80_NK7FButton12getClassNameEv@Base 0.4.0
 _ZThn80_NK7FDialog12getClassNameEv@Base 0.4.0
 _ZThn80_NK7FSwitch12getClassNameEv@Base 0.4.0
 _ZThn80_NK7FWidget12getClassNameEv@Base 0.4.0
 _ZThn80_NK7FWindow12getClassNameEv@Base 0.4.0
 _ZThn80_NK8FListBox12getClassNameEv@Base 0.4.0
 _ZThn80_NK8FMenuBar12getClassNameEv@Base 0.4.0
 _ZThn80_NK8FToolTip12getClassNameEv@Base 0.4.0
 _ZThn80_NK9FCheckBox12getClassNameEv@Base 0.4.0
 _ZThn80_NK9FLineEdit12getClassNameEv@Base 0.4.0
 _ZThn80_NK9FListView12getClassNameEv@Base 0.4.0
 _ZThn80_NK9FMenuItem12getClassNameEv@Base 0.4.0
 _ZThn80_NK9FTextView12getClassNameEv@Base 0.4.0
 _ZeqRK5FRectS1_@Base 0.4.0
 _ZlsRSoRK7FString@Base 0.4.0
 _ZlsRSt13basic_ostreamIwSt11char_traitsIwEERK7FString@Base 0.4.0
 _ZlsRSt6vectorIN9FOptiAttr9char_dataESaIS1_EERK11FTermBuffer@Base 0.4.0
 _ZmiRK5FRectRK6FPoint@Base 0.4.0
 _ZneRK5FRectS1_@Base 0.4.0
 _ZplPKcRK7FString@Base 0.4.0
 _ZplPKwRK7FString@Base 0.4.0
 _ZplRK5FRectRK6FPoint@Base 0.4.0
 _ZplRK7FStringS1_@Base 0.4.0
 _ZplRK7FStringc@Base 0.4.0
 _ZplRK7FStringw@Base 0.4.0
 _ZplRKSbIwSt11char_traitsIwESaIwEERK7FString@Base 0.4.0
 _ZplRKSsRK7FString@Base 0.4.0
 _ZplcRK7FString@Base 0.4.0
 _ZplwRK7FString@Base 0.4.0
 _ZplwRKSbIwSt11char_traitsIwESaIwEE@Base 0.4.0
 _ZrsRSiR7FString@Base 0.4.0
 _ZrsRSt13basic_istreamIwSt11char_traitsIwEER7FString@Base 0.4.0
